EXPORTS
    _ZN2KE10CollectionINS_4FontEE13loadDirectoryERKSs @1
    _ZN2KE10CollectionINS_4FontEE3getERKSs @2
    _ZN2KE10CollectionINS_4FontEED1Ev @3
    _ZN2KE10CollectionINS_5MusicEE13loadDirectoryERKSs @4
    _ZN2KE10CollectionINS_5MusicEE3getERKSs @5
    _ZN2KE10CollectionINS_5MusicEED1Ev @6
    _ZN2KE10CollectionINS_5SoundEE13loadDirectoryERKSs @7
    _ZN2KE10CollectionINS_5SoundEE3getERKSs @8
    _ZN2KE10CollectionINS_5SoundEED1Ev @9
    _ZN2KE10CollectionINS_6CursorEE13loadDirectoryERKSs @10
    _ZN2KE10CollectionINS_6CursorEE3getERKSs @11
    _ZN2KE10CollectionINS_6CursorEED1Ev @12
    _ZN2KE10CollectionINS_6SpriteEE13loadDirectoryERKSs @13
    _ZN2KE10CollectionINS_6SpriteEE3getERKSs @14
    _ZN2KE10CollectionINS_6SpriteEED1Ev @15
    _ZN2KE10CollectionINS_7TextureEE13loadDirectoryERKSs @16
    _ZN2KE10CollectionINS_7TextureEE3getERKSs @17
    _ZN2KE10CollectionINS_7TextureEED1Ev @18
    _ZN2KE19getFilesInDirectoryESsRSt6vectorISsSaISsEERKS2_ @19
    _ZN2KE3App4initEv @20
    _ZN2KE3App4quitEv @21
    _ZN2KE3AppC1Ev @22
    _ZN2KE3AppC2Ev @23
    _ZN2KE3AppD1Ev @24
    _ZN2KE3AppD2Ev @25
    _ZN2KE3Log7numLogsE @26 DATA
    _ZN2KE3LogC1Ev @27
    _ZN2KE3LogC2Ev @28
    _ZN2KE3LogD0Ev @29
    _ZN2KE3LogD1Ev @30
    _ZN2KE4Font10renderTextERKSsRKNS_5ColorE @31
    _ZN2KE4Font11renderLinesERKSsRKNS_5ColorESt6vectorIP11SDL_SurfaceSaIS8_EE @32
    _ZN2KE4Font12loadFromFileERKSs @33
    _ZN2KE4Font12loadFromFileERKSsii @34
    _ZN2KE4Font4loadEP9_TTF_Font @35
    _ZN2KE4Font6unloadEv @36
    _ZN2KE4Font7getNameEv @37
    _ZN2KE4FontC1Ev @38
    _ZN2KE4FontC2Ev @39
    _ZN2KE4FontD1Ev @40
    _ZN2KE4FontD2Ev @41
    _ZN2KE4Game10findObjectERKSs @42
    _ZN2KE4Game10startSceneEPNS_5SceneE @43
    _ZN2KE4Game11getRendererEv @44
    _ZN2KE4Game12combineSceneEPNS_5SceneE @45
    _ZN2KE4Game4exitEv @46
    _ZN2KE4Game4gameE @47 DATA
    _ZN2KE4Game5startEv @48
    _ZN2KE4Game9getResultEv @49
    _ZN2KE4Game9getWindowEv @50
    _ZN2KE4GameC1Ev @51
    _ZN2KE4GameC2Ev @52
    _ZN2KE4GameD0Ev @53
    _ZN2KE4GameD1Ev @54
    _ZN2KE4GameD2Ev @55
    _ZN2KE4LineC1ERKNS_5PointES3_ @56
    _ZN2KE4LineC1Eiidd @57
    _ZN2KE4LineC1Eiiii @58
    _ZN2KE4LineC1Ev @59
    _ZN2KE4LineC2ERKNS_5PointES3_ @60
    _ZN2KE4LineC2Eiidd @61
    _ZN2KE4LineC2Eiiii @62
    _ZN2KE4LineC2Ev @63
    _ZN2KE4RectC1Eiiii @64
    _ZN2KE4RectC1Ev @65
    _ZN2KE4RectC2Eiiii @66
    _ZN2KE4RectC2Ev @67
    _ZN2KE5Color3redE @68 DATA
    _ZN2KE5Color4blueE @69 DATA
    _ZN2KE5Color4cyanE @70 DATA
    _ZN2KE5Color4grayE @71 DATA
    _ZN2KE5Color5blackE @72 DATA
    _ZN2KE5Color5greenE @73 DATA
    _ZN2KE5Color5whiteE @74 DATA
    _ZN2KE5Color6yellowE @75 DATA
    _ZN2KE5Color7magentaE @76 DATA
    _ZN2KE5ColorC1Ehhhh @77
    _ZN2KE5ColorC1Ev @78
    _ZN2KE5ColorC2Ehhhh @79
    _ZN2KE5ColorC2Ev @80
    _ZN2KE5Colorcv9SDL_ColorEv @81
    _ZN2KE5Error9numErrorsE @82 DATA
    _ZN2KE5ErrorC1Ev @83
    _ZN2KE5ErrorC2Ev @84
    _ZN2KE5ErrorD0Ev @85
    _ZN2KE5ErrorD1Ev @86
    _ZN2KE5Music12loadFromFileERKSs @87
    _ZN2KE5Music4loadEP10_Mix_Music @88
    _ZN2KE5Music4loopEi @89
    _ZN2KE5Music4playEi @90
    _ZN2KE5Music4stopEi @91
    _ZN2KE5Music5pauseEv @92
    _ZN2KE5Music6resumeEv @93
    _ZN2KE5Music6unloadEv @94
    _ZN2KE5Music7getNameEv @95
    _ZN2KE5Music9getVolumeEv @96
    _ZN2KE5Music9setVolumeEi @97
    _ZN2KE5MusicC1Ev @98
    _ZN2KE5MusicC2Ev @99
    _ZN2KE5MusicD1Ev @100
    _ZN2KE5MusicD2Ev @101
    _ZN2KE5Point9fromAngleEdd @102
    _ZN2KE5PointC1Eii @103
    _ZN2KE5PointC1Ev @104
    _ZN2KE5PointC2Eii @105
    _ZN2KE5PointC2Ev @106
    _ZN2KE5PointdvEf @107
    _ZN2KE5PointmIERKS0_ @108
    _ZN2KE5PointmlEf @109
    _ZN2KE5PointpLERKS0_ @110
    _ZN2KE5Scene10transferToERS0_ @111
    _ZN2KE5Scene13makeDrawQueueERSt14priority_queueIPNS_6ObjectESt6vectorIS3_SaIS3_EENS0_12ObjectSorterEE @112
    _ZN2KE5Scene6unloadEv @113
    _ZN2KE5Scene7receiveERSt4listIPNS_6ObjectESaIS3_EE @114
    _ZN2KE5SceneC1Ev @115
    _ZN2KE5SceneC2Ev @116
    _ZN2KE5SceneD1Ev @117
    _ZN2KE5SceneD2Ev @118
    _ZN2KE5Sound12loadFromFileERKSs @119
    _ZN2KE5Sound4loadEP9Mix_Chunk @120
    _ZN2KE5Sound4loopEii @121
    _ZN2KE5Sound4playEii @122
    _ZN2KE5Sound4stopEii @123
    _ZN2KE5Sound5pauseEi @124
    _ZN2KE5Sound6resumeEi @125
    _ZN2KE5Sound6unloadEv @126
    _ZN2KE5Sound7getNameEv @127
    _ZN2KE5Sound9getVolumeEi @128
    _ZN2KE5Sound9setVolumeEii @129
    _ZN2KE5SoundC1Ev @130
    _ZN2KE5SoundC2Ev @131
    _ZN2KE5SoundD1Ev @132
    _ZN2KE5SoundD2Ev @133
    _ZN2KE6CircleC1Eiid @134
    _ZN2KE6CircleC1Ev @135
    _ZN2KE6CircleC2Eiid @136
    _ZN2KE6CircleC2Ev @137
    _ZN2KE6Cursor12loadFromFileERKSs @138
    _ZN2KE6Cursor16createFromSystemE16SDL_SystemCursor @139
    _ZN2KE6Cursor17createFromSurfaceERKNS_7SurfaceERKNS_5PointE @140
    _ZN2KE6Cursor4hideEv @141
    _ZN2KE6Cursor4loadEP10SDL_Cursor @142
    _ZN2KE6Cursor4showEv @143
    _ZN2KE6Cursor5applyEv @144
    _ZN2KE6Cursor6unloadEv @145
    _ZN2KE6Cursor7getNameEv @146
    _ZN2KE6CursorC1Ev @147
    _ZN2KE6CursorC2Ev @148
    _ZN2KE6CursorD1Ev @149
    _ZN2KE6CursorD2Ev @150
    _ZN2KE6Object10setKeynameERKSs @151
    _ZN2KE6Object11setPositionERKNS_5PointE @152
    _ZN2KE6Object3dieEv @153
    _ZN2KE6Object4drawEv @154
    _ZN2KE6Object4moveERKNS_5PointE @155
    _ZN2KE6Object4setZEi @156
    _ZN2KE6Object6updateEv @157
    _ZN2KE6Object7addTagsEj @158
    _ZN2KE6ObjectC1ERKNS_5PointEi @159
    _ZN2KE6ObjectC1Ev @160
    _ZN2KE6ObjectC2ERKNS_5PointEi @161
    _ZN2KE6ObjectC2Ev @162
    _ZN2KE6ObjectD0Ev @163
    _ZN2KE6ObjectD1Ev @164
    _ZN2KE6ObjectD2Ev @165
    _ZN2KE6Sprite12loadFromFileERKSs @166
    _ZN2KE6Sprite4drawERKNS_5PointEj @167
    _ZN2KE6Sprite7getNameEv @168
    _ZN2KE6SpriteC1Ev @169
    _ZN2KE6SpriteC2Ev @170
    _ZN2KE6SpriteD1Ev @171
    _ZN2KE6SpriteD2Ev @172
    _ZN2KE6Window4loadEP10SDL_Window @173
    _ZN2KE6Window6createEiiRKSs @174
    _ZN2KE6Window6unloadEv @175
    _ZN2KE6WindowC1Ev @176
    _ZN2KE6WindowC2Ev @177
    _ZN2KE6WindowD1Ev @178
    _ZN2KE6WindowD2Ev @179
    _ZN2KE7ConsoleC1ERSo @180
    _ZN2KE7ConsoleC2ERSo @181
    _ZN2KE7ConsoleD0Ev @182
    _ZN2KE7ConsoleD1Ev @183
    _ZN2KE7ConsoleD2Ev @184
    _ZN2KE7ConsolelsISsEERS0_RKT_ @185
    _ZN2KE7Library10getTextureERKSs @186
    _ZN2KE7Library10loadMusicsERKSs @187
    _ZN2KE7Library10loadSoundsERKSs @188
    _ZN2KE7Library11loadCursorsERKSs @189
    _ZN2KE7Library11loadSpritesERKSs @190
    _ZN2KE7Library12loadTexturesERKSs @191
    _ZN2KE7Library7getFontERKSs @192
    _ZN2KE7Library7libraryE @193 DATA
    _ZN2KE7Library8getMusicERKSs @194
    _ZN2KE7Library8getSoundERKSs @195
    _ZN2KE7Library9getCursorERKSs @196
    _ZN2KE7Library9getSpriteERKSs @197
    _ZN2KE7Library9loadFontsERKSs @198
    _ZN2KE7LibraryC1Ev @199
    _ZN2KE7LibraryC2Ev @200
    _ZN2KE7Surface10renderTextERKNS_4FontERKSsRKNS_5ColorE @201
    _ZN2KE7Surface12loadFromFileERKSs @202
    _ZN2KE7Surface4loadEP11SDL_Surface @203
    _ZN2KE7Surface6createEiiPK15SDL_PixelFormat @204
    _ZN2KE7Surface6createEiiiPc @205
    _ZN2KE7Surface6unloadEv @206
    _ZN2KE7SurfaceC1Ev @207
    _ZN2KE7SurfaceC2Ev @208
    _ZN2KE7SurfaceD1Ev @209
    _ZN2KE7SurfaceD2Ev @210
    _ZN2KE7Texture10renderTextERKNS_4FontERKSsRKNS_5ColorE @211
    _ZN2KE7Texture12loadFromFileERKSs @212
    _ZN2KE7Texture15loadFromSurfaceERKNS_7SurfaceE @213
    _ZN2KE7Texture18loadFromSurfaceVecERKSt6vectorINS_7SurfaceESaIS2_EE @214
    _ZN2KE7Texture4loadEP11SDL_Textureii @215
    _ZN2KE7Texture6unloadEv @216
    _ZN2KE7Texture7getNameEv @217
    _ZN2KE7TextureC1Ev @218
    _ZN2KE7TextureC2Ev @219
    _ZN2KE7TextureD1Ev @220
    _ZN2KE7TextureD2Ev @221
    _ZN2KE7Warning11numWarningsE @222 DATA
    _ZN2KE7WarningC1Ev @223
    _ZN2KE7WarningC2Ev @224
    _ZN2KE7WarningD0Ev @225
    _ZN2KE7WarningD1Ev @226
    _ZN2KE8Geometry8collidesERKNS_4LineERKNS_4RectE @227
    _ZN2KE8Geometry8collidesERKNS_4LineERKNS_6CircleE @228
    _ZN2KE8Geometry8collidesERKNS_4LineES3_ @229
    _ZN2KE8Geometry8collidesERKNS_4RectERKNS_6CircleE @230
    _ZN2KE8Geometry8collidesERKNS_4RectES3_ @231
    _ZN2KE8Geometry8collidesERKNS_5PointERKNS_4LineE @232
    _ZN2KE8Geometry8collidesERKNS_5PointERKNS_4RectE @233
    _ZN2KE8Geometry8collidesERKNS_5PointERKNS_6CircleE @234
    _ZN2KE8Geometry8collidesERKNS_5PointES3_ @235
    _ZN2KE8Geometry8collidesERKNS_6CircleES3_ @236
    _ZN2KE8Renderer10renderFillERKNS_4RectERKNS_5ColorE @237
    _ZN2KE8Renderer13captureScreenEv @238
    _ZN2KE8Renderer4loadEP12SDL_Renderer @239
    _ZN2KE8Renderer6createERKNS_6WindowE @240
    _ZN2KE8Renderer6renderERKNS_4LineERKNS_5ColorE @241
    _ZN2KE8Renderer6renderERKNS_4RectERKNS_5ColorE @242
    _ZN2KE8Renderer6renderERKNS_5ColorE @243
    _ZN2KE8Renderer6renderERKNS_5PointERKNS_5ColorE @244
    _ZN2KE8Renderer6renderERKNS_7TextureERKNS_4RectES6_ @245
    _ZN2KE8Renderer6unloadEv @246
    _ZN2KE8Renderer7presentEv @247
    _ZN2KE8Renderer8setColorERKNS_5ColorE @248
    _ZN2KE8RendererC1Ev @249
    _ZN2KE8RendererC2Ev @250
    _ZN2KE8RendererD1Ev @251
    _ZN2KE8RendererD2Ev @252
    _ZN8tinyxml210XMLComment9ParseDeepEPcPNS_7StrPairE @253
    _ZN8tinyxml210XMLComment9ToCommentEv @254
    _ZN8tinyxml210XMLCommentC1EPNS_11XMLDocumentE @255
    _ZN8tinyxml210XMLCommentC2EPNS_11XMLDocumentE @256
    _ZN8tinyxml210XMLCommentD0Ev @257
    _ZN8tinyxml210XMLCommentD1Ev @258
    _ZN8tinyxml210XMLCommentD2Ev @259
    _ZN8tinyxml210XMLElement13FindAttributeEPKc @260
    _ZN8tinyxml210XMLElement15DeleteAttributeEPKc @261
    _ZN8tinyxml210XMLElement15ParseAttributesEPc @262
    _ZN8tinyxml210XMLElement21FindOrCreateAttributeEPKc @263
    _ZN8tinyxml210XMLElement7SetTextEPKc @264
    _ZN8tinyxml210XMLElement7SetTextEb @265
    _ZN8tinyxml210XMLElement7SetTextEd @266
    _ZN8tinyxml210XMLElement7SetTextEf @267
    _ZN8tinyxml210XMLElement7SetTextEi @268
    _ZN8tinyxml210XMLElement7SetTextEj @269
    _ZN8tinyxml210XMLElement9ParseDeepEPcPNS_7StrPairE @270
    _ZN8tinyxml210XMLElement9ToElementEv @271
    _ZN8tinyxml210XMLElementC1EPNS_11XMLDocumentE @272
    _ZN8tinyxml210XMLElementC2EPNS_11XMLDocumentE @273
    _ZN8tinyxml210XMLElementD0Ev @274
    _ZN8tinyxml210XMLElementD1Ev @275
    _ZN8tinyxml210XMLElementD2Ev @276
    _ZN8tinyxml210XMLPrinter10PrintSpaceEi @277
    _ZN8tinyxml210XMLPrinter10PushHeaderEbb @278
    _ZN8tinyxml210XMLPrinter10VisitEnterERKNS_10XMLElementEPKNS_12XMLAttributeE @279
    _ZN8tinyxml210XMLPrinter10VisitEnterERKNS_11XMLDocumentE @280
    _ZN8tinyxml210XMLPrinter11CompactModeERKNS_10XMLElementE @281
    _ZN8tinyxml210XMLPrinter11OpenElementEPKcb @282
    _ZN8tinyxml210XMLPrinter11PrintStringEPKcb @283
    _ZN8tinyxml210XMLPrinter11PushCommentEPKc @284
    _ZN8tinyxml210XMLPrinter11PushUnknownEPKc @285
    _ZN8tinyxml210XMLPrinter11SealElementEv @286
    _ZN8tinyxml210XMLPrinter12CloseElementEb @287
    _ZN8tinyxml210XMLPrinter13PushAttributeEPKcS2_ @288
    _ZN8tinyxml210XMLPrinter13PushAttributeEPKcb @289
    _ZN8tinyxml210XMLPrinter13PushAttributeEPKcd @290
    _ZN8tinyxml210XMLPrinter13PushAttributeEPKci @291
    _ZN8tinyxml210XMLPrinter13PushAttributeEPKcj @292
    _ZN8tinyxml210XMLPrinter15PushDeclarationEPKc @293
    _ZN8tinyxml210XMLPrinter5PrintEPKcz @294
    _ZN8tinyxml210XMLPrinter5VisitERKNS_10XMLCommentE @295
    _ZN8tinyxml210XMLPrinter5VisitERKNS_10XMLUnknownE @296
    _ZN8tinyxml210XMLPrinter5VisitERKNS_14XMLDeclarationE @297
    _ZN8tinyxml210XMLPrinter5VisitERKNS_7XMLTextE @298
    _ZN8tinyxml210XMLPrinter8PushTextEPKcb @299
    _ZN8tinyxml210XMLPrinter8PushTextEb @300
    _ZN8tinyxml210XMLPrinter8PushTextEd @301
    _ZN8tinyxml210XMLPrinter8PushTextEf @302
    _ZN8tinyxml210XMLPrinter8PushTextEi @303
    _ZN8tinyxml210XMLPrinter8PushTextEj @304
    _ZN8tinyxml210XMLPrinter9VisitExitERKNS_10XMLElementE @305
    _ZN8tinyxml210XMLPrinter9VisitExitERKNS_11XMLDocumentE @306
    _ZN8tinyxml210XMLPrinterC1EP6_iobufbi @307
    _ZN8tinyxml210XMLPrinterC2EP6_iobufbi @308
    _ZN8tinyxml210XMLPrinterD0Ev @309
    _ZN8tinyxml210XMLPrinterD1Ev @310
    _ZN8tinyxml210XMLUnknown9ParseDeepEPcPNS_7StrPairE @311
    _ZN8tinyxml210XMLUnknown9ToUnknownEv @312
    _ZN8tinyxml210XMLUnknownC1EPNS_11XMLDocumentE @313
    _ZN8tinyxml210XMLUnknownC2EPNS_11XMLDocumentE @314
    _ZN8tinyxml210XMLUnknownD0Ev @315
    _ZN8tinyxml210XMLUnknownD1Ev @316
    _ZN8tinyxml210XMLUnknownD2Ev @317
    _ZN8tinyxml210XMLVisitor10VisitEnterERKNS_10XMLElementEPKNS_12XMLAttributeE @318
    _ZN8tinyxml210XMLVisitor10VisitEnterERKNS_11XMLDocumentE @319
    _ZN8tinyxml210XMLVisitor5VisitERKNS_10XMLCommentE @320
    _ZN8tinyxml210XMLVisitor5VisitERKNS_10XMLUnknownE @321
    _ZN8tinyxml210XMLVisitor5VisitERKNS_14XMLDeclarationE @322
    _ZN8tinyxml210XMLVisitor5VisitERKNS_7XMLTextE @323
    _ZN8tinyxml210XMLVisitor9VisitExitERKNS_10XMLElementE @324
    _ZN8tinyxml210XMLVisitor9VisitExitERKNS_11XMLDocumentE @325
    _ZN8tinyxml210XMLVisitorD0Ev @326
    _ZN8tinyxml210XMLVisitorD1Ev @327
    _ZN8tinyxml211XMLDocument10NewCommentEPKc @328
    _ZN8tinyxml211XMLDocument10NewElementEPKc @329
    _ZN8tinyxml211XMLDocument10NewUnknownEPKc @330
    _ZN8tinyxml211XMLDocument10ToDocumentEv @331
    _ZN8tinyxml211XMLDocument14NewDeclarationEPKc @332
    _ZN8tinyxml211XMLDocument5ClearEv @333
    _ZN8tinyxml211XMLDocument5ParseEPKcj @334
    _ZN8tinyxml211XMLDocument7NewTextEPKc @335
    _ZN8tinyxml211XMLDocument8IdentifyEPcPPNS_7XMLNodeE @336
    _ZN8tinyxml211XMLDocument8LoadFileEP6_iobuf @337
    _ZN8tinyxml211XMLDocument8LoadFileEPKc @338
    _ZN8tinyxml211XMLDocument8SaveFileEP6_iobufb @339
    _ZN8tinyxml211XMLDocument8SaveFileEPKcb @340
    _ZN8tinyxml211XMLDocument8SetErrorENS_8XMLErrorEPKcS3_ @341
    _ZN8tinyxml211XMLDocumentC1EbNS_10WhitespaceE @342
    _ZN8tinyxml211XMLDocumentC2EbNS_10WhitespaceE @343
    _ZN8tinyxml211XMLDocumentD0Ev @344
    _ZN8tinyxml211XMLDocumentD1Ev @345
    _ZN8tinyxml211XMLDocumentD2Ev @346
    _ZN8tinyxml212XMLAttribute12SetAttributeEPKc @347
    _ZN8tinyxml212XMLAttribute12SetAttributeEb @348
    _ZN8tinyxml212XMLAttribute12SetAttributeEd @349
    _ZN8tinyxml212XMLAttribute12SetAttributeEf @350
    _ZN8tinyxml212XMLAttribute12SetAttributeEi @351
    _ZN8tinyxml212XMLAttribute12SetAttributeEj @352
    _ZN8tinyxml212XMLAttribute7SetNameEPKc @353
    _ZN8tinyxml212XMLAttribute9ParseDeepEPcb @354
    _ZN8tinyxml212XMLAttributeD0Ev @355
    _ZN8tinyxml212XMLAttributeD1Ev @356
    _ZN8tinyxml214XMLDeclaration13ToDeclarationEv @357
    _ZN8tinyxml214XMLDeclaration9ParseDeepEPcPNS_7StrPairE @358
    _ZN8tinyxml214XMLDeclarationC1EPNS_11XMLDocumentE @359
    _ZN8tinyxml214XMLDeclarationC2EPNS_11XMLDocumentE @360
    _ZN8tinyxml214XMLDeclarationD0Ev @361
    _ZN8tinyxml214XMLDeclarationD1Ev @362
    _ZN8tinyxml214XMLDeclarationD2Ev @363
    _ZN8tinyxml27MemPoolD0Ev @364
    _ZN8tinyxml27MemPoolD1Ev @365
    _ZN8tinyxml27StrPair18CollapseWhitespaceEv @366
    _ZN8tinyxml27StrPair5ResetEv @367
    _ZN8tinyxml27StrPair6GetStrEv @368
    _ZN8tinyxml27StrPair6SetStrEPKci @369
    _ZN8tinyxml27StrPair9ParseNameEPc @370
    _ZN8tinyxml27StrPair9ParseTextEPcPKci @371
    _ZN8tinyxml27StrPairD1Ev @372
    _ZN8tinyxml27StrPairD2Ev @373
    _ZN8tinyxml27XMLNode10ToDocumentEv @374
    _ZN8tinyxml27XMLNode11DeleteChildEPS0_ @375
    _ZN8tinyxml27XMLNode13ToDeclarationEv @376
    _ZN8tinyxml27XMLNode14DeleteChildrenEv @377
    _ZN8tinyxml27XMLNode14InsertEndChildEPS0_ @378
    _ZN8tinyxml27XMLNode16InsertAfterChildEPS0_S1_ @379
    _ZN8tinyxml27XMLNode16InsertFirstChildEPS0_ @380
    _ZN8tinyxml27XMLNode6ToTextEv @381
    _ZN8tinyxml27XMLNode6UnlinkEPS0_ @382
    _ZN8tinyxml27XMLNode8SetValueEPKcb @383
    _ZN8tinyxml27XMLNode9ParseDeepEPcPNS_7StrPairE @384
    _ZN8tinyxml27XMLNode9ToCommentEv @385
    _ZN8tinyxml27XMLNode9ToElementEv @386
    _ZN8tinyxml27XMLNode9ToUnknownEv @387
    _ZN8tinyxml27XMLNodeC1EPNS_11XMLDocumentE @388
    _ZN8tinyxml27XMLNodeC2EPNS_11XMLDocumentE @389
    _ZN8tinyxml27XMLNodeD0Ev @390
    _ZN8tinyxml27XMLNodeD1Ev @391
    _ZN8tinyxml27XMLNodeD2Ev @392
    _ZN8tinyxml27XMLText6ToTextEv @393
    _ZN8tinyxml27XMLText9ParseDeepEPcPNS_7StrPairE @394
    _ZN8tinyxml27XMLTextD0Ev @395
    _ZN8tinyxml27XMLTextD1Ev @396
    _ZN8tinyxml27XMLUtil10ToUnsignedEPKcPj @397
    _ZN8tinyxml27XMLUtil15GetCharacterRefEPKcPcPi @398
    _ZN8tinyxml27XMLUtil18ConvertUTF32ToUTF8EmPcPi @399
    _ZN8tinyxml27XMLUtil5ToIntEPKcPi @400
    _ZN8tinyxml27XMLUtil5ToStrEbPci @401
    _ZN8tinyxml27XMLUtil5ToStrEdPci @402
    _ZN8tinyxml27XMLUtil5ToStrEfPci @403
    _ZN8tinyxml27XMLUtil5ToStrEiPci @404
    _ZN8tinyxml27XMLUtil5ToStrEjPci @405
    _ZN8tinyxml27XMLUtil6ToBoolEPKcPb @406
    _ZN8tinyxml27XMLUtil7ReadBOMEPKcPb @407
    _ZN8tinyxml27XMLUtil7ToFloatEPKcPf @408
    _ZN8tinyxml27XMLUtil8ToDoubleEPKcPd @409
    _ZN8tinyxml28MemPoolTILi36EE10SetTrackedEv @410
    _ZN8tinyxml28MemPoolTILi36EE4FreeEPv @411
    _ZN8tinyxml28MemPoolTILi36EE5AllocEv @412
    _ZN8tinyxml28MemPoolTILi36EED0Ev @413
    _ZN8tinyxml28MemPoolTILi36EED1Ev @414
    _ZN8tinyxml28MemPoolTILi44EE10SetTrackedEv @415
    _ZN8tinyxml28MemPoolTILi44EE4FreeEPv @416
    _ZN8tinyxml28MemPoolTILi44EE5AllocEv @417
    _ZN8tinyxml28MemPoolTILi44EED0Ev @418
    _ZN8tinyxml28MemPoolTILi44EED1Ev @419
    _ZN8tinyxml28MemPoolTILi48EE10SetTrackedEv @420
    _ZN8tinyxml28MemPoolTILi48EE4FreeEPv @421
    _ZN8tinyxml28MemPoolTILi48EE5AllocEv @422
    _ZN8tinyxml28MemPoolTILi48EED0Ev @423
    _ZN8tinyxml28MemPoolTILi48EED1Ev @424
    _ZN8tinyxml28MemPoolTILi52EE10SetTrackedEv @425
    _ZN8tinyxml28MemPoolTILi52EE4FreeEPv @426
    _ZN8tinyxml28MemPoolTILi52EE5AllocEv @427
    _ZN8tinyxml28MemPoolTILi52EED0Ev @428
    _ZN8tinyxml28MemPoolTILi52EED1Ev @429
    _ZNK2KE4FontcvP9_TTF_FontEv @430
    _ZNK2KE4Line10getRadiansEv @431
    _ZNK2KE4Line15getSqaredLengthEv @432
    _ZNK2KE4Line7getRectEv @433
    _ZNK2KE4Line9getLengthEv @434
    _ZNK2KE4Line9normalizeEv @435
    _ZNK2KE4Rect11getPositionEv @436
    _ZNK2KE4Rect4growERKNS_5PointE @437
    _ZNK2KE4Rect4moveERKNS_5PointE @438
    _ZNK2KE4Rect7getSizeEv @439
    _ZNK2KE4Rect9getCenterEv @440
    _ZNK2KE4RectcvP8SDL_RectEv @441
    _ZNK2KE5ColordvEf @442
    _ZNK2KE5ColormiERKS0_ @443
    _ZNK2KE5ColormlEf @444
    _ZNK2KE5ColorplERKS0_ @445
    _ZNK2KE5Point10getRadiansEv @446
    _ZNK2KE5Point16getSquaredLengthEv @447
    _ZNK2KE5Point9getLengthEv @448
    _ZNK2KE5Point9normalizeEv @449
    _ZNK2KE5PointcvP9SDL_PointEv @450
    _ZNK2KE5PointdvEf @451
    _ZNK2KE5PointmiERKS0_ @452
    _ZNK2KE5PointmlEf @453
    _ZNK2KE5PointplERKS0_ @454
    _ZNK2KE5Scene10findObjectERKSs @455
    _ZNK2KE6Circle11getPositionEv @456
    _ZNK2KE6Circle4growEd @457
    _ZNK2KE6Circle4moveERKNS_5PointE @458
    _ZNK2KE6Circle7getSizeEv @459
    _ZNK2KE6CursorcvP10SDL_CursorEv @460
    _ZNK2KE6Object10getKeynameEv @461
    _ZNK2KE6Object11getPositionEv @462
    _ZNK2KE6Object4getZEv @463
    _ZNK2KE6Object7hasTagsEj @464
    _ZNK2KE6Object7isAliveEv @465
    _ZNK2KE6WindowcvP10SDL_WindowEv @466
    _ZNK2KE7Surface4blitERS0_RKNS_4RectE @467
    _ZNK2KE7Surface8getWidthEv @468
    _ZNK2KE7Surface9getFormatEv @469
    _ZNK2KE7Surface9getHeightEv @470
    _ZNK2KE7SurfacecvP11SDL_SurfaceEv @471
    _ZNK2KE7Texture4drawERKNS_5PointERKNS_4RectE @472
    _ZNK2KE7TexturecvP11SDL_TextureEv @473
    _ZNK2KE8RenderercvP12SDL_RendererEv @474
    _ZNK8tinyxml210XMLComment12ShallowCloneEPNS_11XMLDocumentE @475
    _ZNK8tinyxml210XMLComment12ShallowEqualEPKNS_7XMLNodeE @476
    _ZNK8tinyxml210XMLComment6AcceptEPNS_10XMLVisitorE @477
    _ZNK8tinyxml210XMLComment9ToCommentEv @478
    _ZNK8tinyxml210XMLElement12QueryIntTextEPi @479
    _ZNK8tinyxml210XMLElement12ShallowCloneEPNS_11XMLDocumentE @480
    _ZNK8tinyxml210XMLElement12ShallowEqualEPKNS_7XMLNodeE @481
    _ZNK8tinyxml210XMLElement13FindAttributeEPKc @482
    _ZNK8tinyxml210XMLElement13QueryBoolTextEPb @483
    _ZNK8tinyxml210XMLElement14QueryFloatTextEPf @484
    _ZNK8tinyxml210XMLElement15QueryDoubleTextEPd @485
    _ZNK8tinyxml210XMLElement17QueryUnsignedTextEPj @486
    _ZNK8tinyxml210XMLElement6AcceptEPNS_10XMLVisitorE @487
    _ZNK8tinyxml210XMLElement7GetTextEv @488
    _ZNK8tinyxml210XMLElement9AttributeEPKcS2_ @489
    _ZNK8tinyxml210XMLElement9ToElementEv @490
    _ZNK8tinyxml210XMLUnknown12ShallowCloneEPNS_11XMLDocumentE @491
    _ZNK8tinyxml210XMLUnknown12ShallowEqualEPKNS_7XMLNodeE @492
    _ZNK8tinyxml210XMLUnknown6AcceptEPNS_10XMLVisitorE @493
    _ZNK8tinyxml210XMLUnknown9ToUnknownEv @494
    _ZNK8tinyxml211XMLDocument10PrintErrorEv @495
    _ZNK8tinyxml211XMLDocument10ToDocumentEv @496
    _ZNK8tinyxml211XMLDocument12ShallowCloneEPS0_ @497
    _ZNK8tinyxml211XMLDocument12ShallowEqualEPKNS_7XMLNodeE @498
    _ZNK8tinyxml211XMLDocument5PrintEPNS_10XMLPrinterE @499
    _ZNK8tinyxml211XMLDocument6AcceptEPNS_10XMLVisitorE @500
    _ZNK8tinyxml212XMLAttribute13QueryIntValueEPi @501
    _ZNK8tinyxml212XMLAttribute14QueryBoolValueEPb @502
    _ZNK8tinyxml212XMLAttribute15QueryFloatValueEPf @503
    _ZNK8tinyxml212XMLAttribute16QueryDoubleValueEPd @504
    _ZNK8tinyxml212XMLAttribute18QueryUnsignedValueEPj @505
    _ZNK8tinyxml212XMLAttribute4NameEv @506
    _ZNK8tinyxml212XMLAttribute5ValueEv @507
    _ZNK8tinyxml214XMLDeclaration12ShallowCloneEPNS_11XMLDocumentE @508
    _ZNK8tinyxml214XMLDeclaration12ShallowEqualEPKNS_7XMLNodeE @509
    _ZNK8tinyxml214XMLDeclaration13ToDeclarationEv @510
    _ZNK8tinyxml214XMLDeclaration6AcceptEPNS_10XMLVisitorE @511
    _ZNK8tinyxml27XMLNode10ToDocumentEv @512
    _ZNK8tinyxml27XMLNode13ToDeclarationEv @513
    _ZNK8tinyxml27XMLNode16LastChildElementEPKc @514
    _ZNK8tinyxml27XMLNode17FirstChildElementEPKc @515
    _ZNK8tinyxml27XMLNode18NextSiblingElementEPKc @516
    _ZNK8tinyxml27XMLNode22PreviousSiblingElementEPKc @517
    _ZNK8tinyxml27XMLNode5ValueEv @518
    _ZNK8tinyxml27XMLNode6ToTextEv @519
    _ZNK8tinyxml27XMLNode9ToCommentEv @520
    _ZNK8tinyxml27XMLNode9ToElementEv @521
    _ZNK8tinyxml27XMLNode9ToUnknownEv @522
    _ZNK8tinyxml27XMLText12ShallowCloneEPNS_11XMLDocumentE @523
    _ZNK8tinyxml27XMLText12ShallowEqualEPKNS_7XMLNodeE @524
    _ZNK8tinyxml27XMLText6AcceptEPNS_10XMLVisitorE @525
    _ZNK8tinyxml27XMLText6ToTextEv @526
    _ZNK8tinyxml28MemPoolTILi36EE8ItemSizeEv @527
    _ZNK8tinyxml28MemPoolTILi44EE8ItemSizeEv @528
    _ZNK8tinyxml28MemPoolTILi48EE8ItemSizeEv @529
    _ZNK8tinyxml28MemPoolTILi52EE8ItemSizeEv @530
    _ZNKSt8_Rb_treeISsSt4pairIKSsPN2KE4FontEESt10_Select1stIS5_ESt4lessISsESaIS5_EE4findERS1_ @531
    _ZNKSt8_Rb_treeISsSt4pairIKSsPN2KE5MusicEESt10_Select1stIS5_ESt4lessISsESaIS5_EE4findERS1_ @532
    _ZNKSt8_Rb_treeISsSt4pairIKSsPN2KE5SoundEESt10_Select1stIS5_ESt4lessISsESaIS5_EE4findERS1_ @533
    _ZNKSt8_Rb_treeISsSt4pairIKSsPN2KE6CursorEESt10_Select1stIS5_ESt4lessISsESaIS5_EE4findERS1_ @534
    _ZNKSt8_Rb_treeISsSt4pairIKSsPN2KE6SpriteEESt10_Select1stIS5_ESt4lessISsESaIS5_EE4findERS1_ @535
    _ZNKSt8_Rb_treeISsSt4pairIKSsPN2KE7TextureEESt10_Select1stIS5_ESt4lessISsESaIS5_EE4findERS1_ @536
    _ZNSt10_List_baseIPN2KE6ObjectESaIS2_EE8_M_clearEv @537
    _ZNSt12_Destroy_auxILb0EE9__destroyIPSsEEvT_S3_ @538
    _ZNSt4pairIKSsPN2KE4FontEED1Ev @539
    _ZNSt4pairIKSsPN2KE5MusicEED1Ev @540
    _ZNSt4pairIKSsPN2KE5SoundEED1Ev @541
    _ZNSt4pairIKSsPN2KE6CursorEED1Ev @542
    _ZNSt4pairIKSsPN2KE6SpriteEED1Ev @543
    _ZNSt4pairIKSsPN2KE7TextureEED1Ev @544
    _ZNSt6vectorIP11SDL_SurfaceSaIS1_EE19_M_emplace_back_auxIIRKS1_EEEvDpOT_ @545
    _ZNSt6vectorISsSaISsEE13_M_assign_auxIPKSsEEvT_S5_St20forward_iterator_tag @546
    _ZNSt6vectorISsSaISsEE19_M_emplace_back_auxIIRKSsEEEvDpOT_ @547
    _ZNSt6vectorISsSaISsEED1Ev @548
    _ZNSt8_Rb_treeISsSt4pairIKSsPN2KE4FontEESt10_Select1stIS5_ESt4lessISsESaIS5_EE10_M_insert_IS5_EESt17_Rb_tree_iteratorIS5_EPKSt18_Rb_tree_node_baseSH_OT_ @549
    _ZNSt8_Rb_treeISsSt4pairIKSsPN2KE4FontEESt10_Select1stIS5_ESt4lessISsESaIS5_EE16_M_insert_uniqueIS5_EES0_ISt17_Rb_tree_iteratorIS5_EbEOT_ @550
    _ZNSt8_Rb_treeISsSt4pairIKSsPN2KE4FontEESt10_Select1stIS5_ESt4lessISsESaIS5_EE17_M_insert_unique_IS5_EESt17_Rb_tree_iteratorIS5_ESt23_Rb_tree_const_iteratorIS5_EOT_ @551
    _ZNSt8_Rb_treeISsSt4pairIKSsPN2KE4FontEESt10_Select1stIS5_ESt4lessISsESaIS5_EE8_M_eraseEPSt13_Rb_tree_nodeIS5_E @552
    _ZNSt8_Rb_treeISsSt4pairIKSsPN2KE5MusicEESt10_Select1stIS5_ESt4lessISsESaIS5_EE10_M_insert_IS5_EESt17_Rb_tree_iteratorIS5_EPKSt18_Rb_tree_node_baseSH_OT_ @553
    _ZNSt8_Rb_treeISsSt4pairIKSsPN2KE5MusicEESt10_Select1stIS5_ESt4lessISsESaIS5_EE16_M_insert_uniqueIS5_EES0_ISt17_Rb_tree_iteratorIS5_EbEOT_ @554
    _ZNSt8_Rb_treeISsSt4pairIKSsPN2KE5MusicEESt10_Select1stIS5_ESt4lessISsESaIS5_EE17_M_insert_unique_IS5_EESt17_Rb_tree_iteratorIS5_ESt23_Rb_tree_const_iteratorIS5_EOT_ @555
    _ZNSt8_Rb_treeISsSt4pairIKSsPN2KE5MusicEESt10_Select1stIS5_ESt4lessISsESaIS5_EE8_M_eraseEPSt13_Rb_tree_nodeIS5_E @556
    _ZNSt8_Rb_treeISsSt4pairIKSsPN2KE5SoundEESt10_Select1stIS5_ESt4lessISsESaIS5_EE10_M_insert_IS5_EESt17_Rb_tree_iteratorIS5_EPKSt18_Rb_tree_node_baseSH_OT_ @557
    _ZNSt8_Rb_treeISsSt4pairIKSsPN2KE5SoundEESt10_Select1stIS5_ESt4lessISsESaIS5_EE16_M_insert_uniqueIS5_EES0_ISt17_Rb_tree_iteratorIS5_EbEOT_ @558
    _ZNSt8_Rb_treeISsSt4pairIKSsPN2KE5SoundEESt10_Select1stIS5_ESt4lessISsESaIS5_EE17_M_insert_unique_IS5_EESt17_Rb_tree_iteratorIS5_ESt23_Rb_tree_const_iteratorIS5_EOT_ @559
    _ZNSt8_Rb_treeISsSt4pairIKSsPN2KE5SoundEESt10_Select1stIS5_ESt4lessISsESaIS5_EE8_M_eraseEPSt13_Rb_tree_nodeIS5_E @560
    _ZNSt8_Rb_treeISsSt4pairIKSsPN2KE6CursorEESt10_Select1stIS5_ESt4lessISsESaIS5_EE10_M_insert_IS5_EESt17_Rb_tree_iteratorIS5_EPKSt18_Rb_tree_node_baseSH_OT_ @561
    _ZNSt8_Rb_treeISsSt4pairIKSsPN2KE6CursorEESt10_Select1stIS5_ESt4lessISsESaIS5_EE16_M_insert_uniqueIS5_EES0_ISt17_Rb_tree_iteratorIS5_EbEOT_ @562
    _ZNSt8_Rb_treeISsSt4pairIKSsPN2KE6CursorEESt10_Select1stIS5_ESt4lessISsESaIS5_EE17_M_insert_unique_IS5_EESt17_Rb_tree_iteratorIS5_ESt23_Rb_tree_const_iteratorIS5_EOT_ @563
    _ZNSt8_Rb_treeISsSt4pairIKSsPN2KE6CursorEESt10_Select1stIS5_ESt4lessISsESaIS5_EE8_M_eraseEPSt13_Rb_tree_nodeIS5_E @564
    _ZNSt8_Rb_treeISsSt4pairIKSsPN2KE6SpriteEESt10_Select1stIS5_ESt4lessISsESaIS5_EE10_M_insert_IS5_EESt17_Rb_tree_iteratorIS5_EPKSt18_Rb_tree_node_baseSH_OT_ @565
    _ZNSt8_Rb_treeISsSt4pairIKSsPN2KE6SpriteEESt10_Select1stIS5_ESt4lessISsESaIS5_EE16_M_insert_uniqueIS5_EES0_ISt17_Rb_tree_iteratorIS5_EbEOT_ @566
    _ZNSt8_Rb_treeISsSt4pairIKSsPN2KE6SpriteEESt10_Select1stIS5_ESt4lessISsESaIS5_EE17_M_insert_unique_IS5_EESt17_Rb_tree_iteratorIS5_ESt23_Rb_tree_const_iteratorIS5_EOT_ @567
    _ZNSt8_Rb_treeISsSt4pairIKSsPN2KE6SpriteEESt10_Select1stIS5_ESt4lessISsESaIS5_EE8_M_eraseEPSt13_Rb_tree_nodeIS5_E @568
    _ZNSt8_Rb_treeISsSt4pairIKSsPN2KE7TextureEESt10_Select1stIS5_ESt4lessISsESaIS5_EE10_M_insert_IS5_EESt17_Rb_tree_iteratorIS5_EPKSt18_Rb_tree_node_baseSH_OT_ @569
    _ZNSt8_Rb_treeISsSt4pairIKSsPN2KE7TextureEESt10_Select1stIS5_ESt4lessISsESaIS5_EE16_M_insert_uniqueIS5_EES0_ISt17_Rb_tree_iteratorIS5_EbEOT_ @570
    _ZNSt8_Rb_treeISsSt4pairIKSsPN2KE7TextureEESt10_Select1stIS5_ESt4lessISsESaIS5_EE17_M_insert_unique_IS5_EESt17_Rb_tree_iteratorIS5_ESt23_Rb_tree_const_iteratorIS5_EOT_ @571
    _ZNSt8_Rb_treeISsSt4pairIKSsPN2KE7TextureEESt10_Select1stIS5_ESt4lessISsESaIS5_EE8_M_eraseEPSt13_Rb_tree_nodeIS5_E @572
    _ZSt6__findIN9__gnu_cxx17__normal_iteratorIPKSsSt6vectorISsSaISsEEEESsET_S8_S8_RKT0_St26random_access_iterator_tag @573
    _ZTIN2KE3LogE @574 DATA
    _ZTIN2KE4GameE @575 DATA
    _ZTIN2KE5ErrorE @576 DATA
    _ZTIN2KE6ObjectE @577 DATA
    _ZTIN2KE7ConsoleE @578 DATA
    _ZTIN2KE7WarningE @579 DATA
    _ZTIN8tinyxml210XMLCommentE @580 DATA
    _ZTIN8tinyxml210XMLElementE @581 DATA
    _ZTIN8tinyxml210XMLPrinterE @582 DATA
    _ZTIN8tinyxml210XMLUnknownE @583 DATA
    _ZTIN8tinyxml210XMLVisitorE @584 DATA
    _ZTIN8tinyxml211XMLDocumentE @585 DATA
    _ZTIN8tinyxml212XMLAttributeE @586 DATA
    _ZTIN8tinyxml214XMLDeclarationE @587 DATA
    _ZTIN8tinyxml27MemPoolE @588 DATA
    _ZTIN8tinyxml27XMLNodeE @589 DATA
    _ZTIN8tinyxml27XMLTextE @590 DATA
    _ZTIN8tinyxml28MemPoolTILi36EEE @591 DATA
    _ZTIN8tinyxml28MemPoolTILi44EEE @592 DATA
    _ZTIN8tinyxml28MemPoolTILi48EEE @593 DATA
    _ZTIN8tinyxml28MemPoolTILi52EEE @594 DATA
    _ZTSN2KE3LogE @595 DATA
    _ZTSN2KE4GameE @596 DATA
    _ZTSN2KE5ErrorE @597 DATA
    _ZTSN2KE6ObjectE @598 DATA
    _ZTSN2KE7ConsoleE @599 DATA
    _ZTSN2KE7WarningE @600 DATA
    _ZTSN8tinyxml210XMLCommentE @601 DATA
    _ZTSN8tinyxml210XMLElementE @602 DATA
    _ZTSN8tinyxml210XMLPrinterE @603 DATA
    _ZTSN8tinyxml210XMLUnknownE @604 DATA
    _ZTSN8tinyxml210XMLVisitorE @605 DATA
    _ZTSN8tinyxml211XMLDocumentE @606 DATA
    _ZTSN8tinyxml212XMLAttributeE @607 DATA
    _ZTSN8tinyxml214XMLDeclarationE @608 DATA
    _ZTSN8tinyxml27MemPoolE @609 DATA
    _ZTSN8tinyxml27XMLNodeE @610 DATA
    _ZTSN8tinyxml27XMLTextE @611 DATA
    _ZTSN8tinyxml28MemPoolTILi36EEE @612 DATA
    _ZTSN8tinyxml28MemPoolTILi44EEE @613 DATA
    _ZTSN8tinyxml28MemPoolTILi48EEE @614 DATA
    _ZTSN8tinyxml28MemPoolTILi52EEE @615 DATA
    _ZTVN2KE3LogE @616 DATA
    _ZTVN2KE4GameE @617 DATA
    _ZTVN2KE5ErrorE @618 DATA
    _ZTVN2KE6ObjectE @619 DATA
    _ZTVN2KE7ConsoleE @620 DATA
    _ZTVN2KE7WarningE @621 DATA
    _ZTVN8tinyxml210XMLCommentE @622 DATA
    _ZTVN8tinyxml210XMLElementE @623 DATA
    _ZTVN8tinyxml210XMLPrinterE @624 DATA
    _ZTVN8tinyxml210XMLUnknownE @625 DATA
    _ZTVN8tinyxml210XMLVisitorE @626 DATA
    _ZTVN8tinyxml211XMLDocumentE @627 DATA
    _ZTVN8tinyxml212XMLAttributeE @628 DATA
    _ZTVN8tinyxml214XMLDeclarationE @629 DATA
    _ZTVN8tinyxml27MemPoolE @630 DATA
    _ZTVN8tinyxml27XMLNodeE @631 DATA
    _ZTVN8tinyxml27XMLTextE @632 DATA
    _ZTVN8tinyxml28MemPoolTILi36EEE @633 DATA
    _ZTVN8tinyxml28MemPoolTILi44EEE @634 DATA
    _ZTVN8tinyxml28MemPoolTILi48EEE @635 DATA
    _ZTVN8tinyxml28MemPoolTILi52EEE @636 DATA
    _get_output_format @637
    printf @638
