EXPORTS
    _ZN2KE10CollectionINS_4FontEE12loadFromFileERKSsS4_ @1
    _ZN2KE10CollectionINS_4FontEE13loadDirectoryERKSs @2
    _ZN2KE10CollectionINS_4FontEE3getERKSs @3
    _ZN2KE10CollectionINS_4FontEE4quitEv @4
    _ZN2KE10CollectionINS_4FontEEC1ERKSsSt16initializer_listISsE @5
    _ZN2KE10CollectionINS_4FontEED1Ev @6
    _ZN2KE10CollectionINS_5MusicEE12loadFromFileERKSsS4_ @7
    _ZN2KE10CollectionINS_5MusicEE13loadDirectoryERKSs @8
    _ZN2KE10CollectionINS_5MusicEE3getERKSs @9
    _ZN2KE10CollectionINS_5MusicEE4quitEv @10
    _ZN2KE10CollectionINS_5MusicEEC1ERKSsSt16initializer_listISsE @11
    _ZN2KE10CollectionINS_5MusicEED1Ev @12
    _ZN2KE10CollectionINS_5SoundEE12loadFromFileERKSsS4_ @13
    _ZN2KE10CollectionINS_5SoundEE13loadDirectoryERKSs @14
    _ZN2KE10CollectionINS_5SoundEE3getERKSs @15
    _ZN2KE10CollectionINS_5SoundEE4quitEv @16
    _ZN2KE10CollectionINS_5SoundEEC1ERKSsSt16initializer_listISsE @17
    _ZN2KE10CollectionINS_5SoundEED1Ev @18
    _ZN2KE10CollectionINS_6CursorEE12loadFromFileERKSsS4_ @19
    _ZN2KE10CollectionINS_6CursorEE13loadDirectoryERKSs @20
    _ZN2KE10CollectionINS_6CursorEE3getERKSs @21
    _ZN2KE10CollectionINS_6CursorEE4quitEv @22
    _ZN2KE10CollectionINS_6CursorEEC1ERKSsSt16initializer_listISsE @23
    _ZN2KE10CollectionINS_6CursorEED1Ev @24
    _ZN2KE10CollectionINS_7TextureEE12loadFromFileERKSsS4_ @25
    _ZN2KE10CollectionINS_7TextureEE13loadDirectoryERKSs @26
    _ZN2KE10CollectionINS_7TextureEE3getERKSs @27
    _ZN2KE10CollectionINS_7TextureEE4quitEv @28
    _ZN2KE10CollectionINS_7TextureEEC1ERKSsSt16initializer_listISsE @29
    _ZN2KE10CollectionINS_7TextureEED1Ev @30
    _ZN2KE10CollectionINS_7TilesetEE12loadFromFileERKSsS4_ @31
    _ZN2KE10CollectionINS_7TilesetEE13loadDirectoryERKSs @32
    _ZN2KE10CollectionINS_7TilesetEE3getERKSs @33
    _ZN2KE10CollectionINS_7TilesetEE4quitEv @34
    _ZN2KE10CollectionINS_7TilesetEEC1ERKSsSt16initializer_listISsE @35
    _ZN2KE10CollectionINS_7TilesetEED1Ev @36
    _ZN2KE19getFilesInDirectoryESsRSt6vectorISsSaISsEERKS2_ @37
    _ZN2KE3Log7numLogsE @38 DATA
    _ZN2KE3LogC1Ev @39
    _ZN2KE3LogC2Ev @40
    _ZN2KE3LogD0Ev @41
    _ZN2KE3LogD1Ev @42
    _ZN2KE4Font12loadFromFileERKSs @43
    _ZN2KE4Font12loadFromFileERKSsii @44
    _ZN2KE4Font4loadEP9_TTF_Font @45
    _ZN2KE4Font6unloadEv @46
    _ZN2KE4FontC1Ev @47
    _ZN2KE4FontC2Ev @48
    _ZN2KE4FontD1Ev @49
    _ZN2KE4FontD2Ev @50
    _ZN2KE4Game10startSceneEPNS_5SceneE @51
    _ZN2KE4Game10subsystemsE @52 DATA
    _ZN2KE4Game11audioFormatE @53 DATA
    _ZN2KE4Game11getRendererEv @54
    _ZN2KE4Game12combineSceneEPNS_5SceneE @55
    _ZN2KE4Game12getDeltaTimeEv @56
    _ZN2KE4Game13getWindowSizeEv @57
    _ZN2KE4Game13setWindowSizeERKNS_5PointE @58
    _ZN2KE4Game17audioTypesSupportE @59 DATA
    _ZN2KE4Game17imageTypesSupportE @60 DATA
    _ZN2KE4Game21defaultAudioChunkSizeE @61 DATA
    _ZN2KE4Game21defaultAudioFrequencyE @62 DATA
    _ZN2KE4Game4exitEi @63
    _ZN2KE4Game4exitEv @64
    _ZN2KE4Game4gameE @65 DATA
    _ZN2KE4Game4initEv @66
    _ZN2KE4Game4loopEv @67
    _ZN2KE4Game4quitEv @68
    _ZN2KE4Game5startEv @69
    _ZN2KE4Game6onExitEv @70
    _ZN2KE4Game7getTimeEv @71
    _ZN2KE4Game7onStartEv @72
    _ZN2KE4Game9getResultEv @73
    _ZN2KE4Game9getWindowEv @74
    _ZN2KE4GameC1ERKNS_5PointERKSs @75
    _ZN2KE4GameC1ERKNS_5PointERKSsii @76
    _ZN2KE4GameC2ERKNS_5PointERKSs @77
    _ZN2KE4GameC2ERKNS_5PointERKSsii @78
    _ZN2KE4GameD0Ev @79
    _ZN2KE4GameD1Ev @80
    _ZN2KE4GameD2Ev @81
    _ZN2KE4LineC1ERKNS_5PointES3_ @82
    _ZN2KE4LineC1Eiidd @83
    _ZN2KE4LineC1Eiiii @84
    _ZN2KE4LineC1Ev @85
    _ZN2KE4LineC2ERKNS_5PointES3_ @86
    _ZN2KE4LineC2Eiidd @87
    _ZN2KE4LineC2Eiiii @88
    _ZN2KE4LineC2Ev @89
    _ZN2KE4RectC1ERKNS_5PointE @90
    _ZN2KE4RectC1ERKNS_5PointES3_ @91
    _ZN2KE4RectC1Eii @92
    _ZN2KE4RectC1Eiiii @93
    _ZN2KE4RectC1Ev @94
    _ZN2KE4RectC2ERKNS_5PointE @95
    _ZN2KE4RectC2ERKNS_5PointES3_ @96
    _ZN2KE4RectC2Eii @97
    _ZN2KE4RectC2Eiiii @98
    _ZN2KE4RectC2Ev @99
    _ZN2KE5Color3redE @100 DATA
    _ZN2KE5Color4blueE @101 DATA
    _ZN2KE5Color4cyanE @102 DATA
    _ZN2KE5Color4grayE @103 DATA
    _ZN2KE5Color5blackE @104 DATA
    _ZN2KE5Color5greenE @105 DATA
    _ZN2KE5Color5whiteE @106 DATA
    _ZN2KE5Color6yellowE @107 DATA
    _ZN2KE5Color7magentaE @108 DATA
    _ZN2KE5ColorC1Ehhhh @109
    _ZN2KE5ColorC1Ev @110
    _ZN2KE5ColorC2Ehhhh @111
    _ZN2KE5ColorC2Ev @112
    _ZN2KE5Colorcv9SDL_ColorEv @113
    _ZN2KE5Error9numErrorsE @114 DATA
    _ZN2KE5ErrorC1Ev @115
    _ZN2KE5ErrorC2Ev @116
    _ZN2KE5ErrorD0Ev @117
    _ZN2KE5ErrorD1Ev @118
    _ZN2KE5Input10getButtonsEi @119
    _ZN2KE5Input10getKeyDownEi @120
    _ZN2KE5Input10getKeyNameEi @121
    _ZN2KE5Input10getNumAxesEi @122
    _ZN2KE5Input10getNumHatsEi @123
    _ZN2KE5Input10getNumKeysEv @124
    _ZN2KE5Input10joyRemovedEi @125
    _ZN2KE5Input11getNumBallsEi @126
    _ZN2KE5Input11textEnteredEv @127
    _ZN2KE5Input12getModifiersEi @128
    _ZN2KE5Input12maxJoysticksE @129 DATA
    _ZN2KE5Input13checkJoystickEi @130
    _ZN2KE5Input13checkKeyboardEi @131
    _ZN2KE5Input13getNumButtonsEi @132
    _ZN2KE5Input14getJoystickHatEii @133
    _ZN2KE5Input14getKeyFromNameEPKc @134
    _ZN2KE5Input15getJoystickAxisEii @135
    _ZN2KE5Input15getJoystickNameEi @136
    _ZN2KE5Input15getNumJoysticksEv @137
    _ZN2KE5Input17getJoystickButtonEii @138
    _ZN2KE5Input4quitEv @139
    _ZN2KE5Input5inputE @140 DATA
    _ZN2KE5Input5startEv @141
    _ZN2KE5Input6getKeyEi @142
    _ZN2KE5Input6updateEv @143
    _ZN2KE5Input7getTextEv @144
    _ZN2KE5Input8getKeyUpEi @145
    _ZN2KE5Input8getMouseEv @146
    _ZN2KE5Input8joyAddedEi @147
    _ZN2KE5InputC1Ev @148
    _ZN2KE5InputC2Ev @149
    _ZN2KE5InputD1Ev @150
    _ZN2KE5InputD2Ev @151
    _ZN2KE5Music12loadFromFileERKSs @152
    _ZN2KE5Music4loadEP10_Mix_Music @153
    _ZN2KE5Music4loopEi @154
    _ZN2KE5Music4playEi @155
    _ZN2KE5Music4stopEi @156
    _ZN2KE5Music5pauseEv @157
    _ZN2KE5Music6resumeEv @158
    _ZN2KE5Music6unloadEv @159
    _ZN2KE5Music9getVolumeEv @160
    _ZN2KE5Music9setVolumeEi @161
    _ZN2KE5MusicC1Ev @162
    _ZN2KE5MusicC2Ev @163
    _ZN2KE5MusicD1Ev @164
    _ZN2KE5MusicD2Ev @165
    _ZN2KE5Point9fromAngleEdd @166
    _ZN2KE5PointC1Eii @167
    _ZN2KE5PointC1Ev @168
    _ZN2KE5PointC2Eii @169
    _ZN2KE5PointC2Ev @170
    _ZN2KE5PointdvEf @171
    _ZN2KE5PointmIERKS0_ @172
    _ZN2KE5PointmlEf @173
    _ZN2KE5PointpLERKS0_ @174
    _ZN2KE5Scene10transferToERS0_ @175
    _ZN2KE5Scene3addEPNS_6ObjectE @176
    _ZN2KE5Scene4drawEv @177
    _ZN2KE5Scene5closeEv @178
    _ZN2KE5Scene5startEv @179
    _ZN2KE5Scene5thinkEv @180
    _ZN2KE5Scene6onDrawEv @181
    _ZN2KE5Scene6unloadEv @182
    _ZN2KE5Scene6updateEv @183
    _ZN2KE5Scene7arrangeEv @184
    _ZN2KE5Scene7onCloseEv @185
    _ZN2KE5Scene7onStartEv @186
    _ZN2KE5Scene7onThinkEv @187
    _ZN2KE5Scene7receiveERSt4listINS_8InstanceINS_6ObjectEEESaIS4_EE @188
    _ZN2KE5Scene8onUpdateEv @189
    _ZN2KE5Scene9onArrangeEv @190
    _ZN2KE5SceneC1Ev @191
    _ZN2KE5SceneC2Ev @192
    _ZN2KE5SceneD0Ev @193
    _ZN2KE5SceneD1Ev @194
    _ZN2KE5SceneD2Ev @195
    _ZN2KE5Sound12loadFromFileERKSs @196
    _ZN2KE5Sound4loadEP9Mix_Chunk @197
    _ZN2KE5Sound4loopEii @198
    _ZN2KE5Sound4playEii @199
    _ZN2KE5Sound4stopEii @200
    _ZN2KE5Sound5pauseEi @201
    _ZN2KE5Sound6resumeEi @202
    _ZN2KE5Sound6unloadEv @203
    _ZN2KE5Sound9getVolumeEi @204
    _ZN2KE5Sound9setVolumeEii @205
    _ZN2KE5SoundC1Ev @206
    _ZN2KE5SoundC2Ev @207
    _ZN2KE5SoundD1Ev @208
    _ZN2KE5SoundD2Ev @209
    _ZN2KE6CircleC1Eiid @210
    _ZN2KE6CircleC1Ev @211
    _ZN2KE6CircleC2Eiid @212
    _ZN2KE6CircleC2Ev @213
    _ZN2KE6Cursor12loadFromFileERKSs @214
    _ZN2KE6Cursor16createFromSystemE16SDL_SystemCursor @215
    _ZN2KE6Cursor17createFromSurfaceERKNS_7SurfaceERKNS_5PointE @216
    _ZN2KE6Cursor4hideEv @217
    _ZN2KE6Cursor4loadEP10SDL_Cursor @218
    _ZN2KE6Cursor4showEv @219
    _ZN2KE6Cursor5applyEv @220
    _ZN2KE6Cursor6unloadEv @221
    _ZN2KE6Cursor7getNameEv @222
    _ZN2KE6CursorC1Ev @223
    _ZN2KE6CursorC2Ev @224
    _ZN2KE6CursorD1Ev @225
    _ZN2KE6CursorD2Ev @226
    _ZN2KE6Object10setKeynameERKSs @227
    _ZN2KE6Object11setPositionERKNS_5PointE @228
    _ZN2KE6Object3dieEv @229
    _ZN2KE6Object4drawEv @230
    _ZN2KE6Object4moveERKNS_5PointE @231
    _ZN2KE6Object4setZEi @232
    _ZN2KE6Object5closeEv @233
    _ZN2KE6Object5deathEv @234
    _ZN2KE6Object5startEv @235
    _ZN2KE6Object5thinkEv @236
    _ZN2KE6Object6onDrawEv @237
    _ZN2KE6Object6updateEv @238
    _ZN2KE6Object7addTagsEj @239
    _ZN2KE6Object7arrangeEv @240
    _ZN2KE6Object7onCloseEv @241
    _ZN2KE6Object7onDeathEv @242
    _ZN2KE6Object7onStartEv @243
    _ZN2KE6Object7onThinkEv @244
    _ZN2KE6Object8onUpdateEv @245
    _ZN2KE6Object9onArrangeEv @246
    _ZN2KE6ObjectC1ERKNS_5PointEi @247
    _ZN2KE6ObjectC1Ev @248
    _ZN2KE6ObjectC2ERKNS_5PointEi @249
    _ZN2KE6ObjectC2Ev @250
    _ZN2KE6ObjectD0Ev @251
    _ZN2KE6ObjectD1Ev @252
    _ZN2KE6ObjectD2Ev @253
    _ZN2KE6Sprite10getCurTimeEv @254
    _ZN2KE6Sprite11getCurFrameEv @255
    _ZN2KE6Sprite4drawERKNS_5PointE @256
    _ZN2KE6Sprite4playERKSsbb @257
    _ZN2KE6Sprite5pauseEv @258
    _ZN2KE6Sprite6resumeEv @259
    _ZN2KE6SpriteC1EPKNS_7TilesetE @260
    _ZN2KE6SpriteC2EPKNS_7TilesetE @261
    _ZN2KE6Window4loadEP10SDL_Window @262
    _ZN2KE6Window4quitEv @263
    _ZN2KE6Window6createEiiRKSs @264
    _ZN2KE6Window6unloadEv @265
    _ZN2KE6Window7setSizeERKNS_5PointE @266
    _ZN2KE6Window8setTitleERKSs @267
    _ZN2KE6WindowC1Ev @268
    _ZN2KE6WindowC2Ev @269
    _ZN2KE7Console11warningFileE @270 DATA
    _ZN2KE7Console7logFileE @271 DATA
    _ZN2KE7Console9errorFileE @272 DATA
    _ZN2KE7ConsoleC1ERSo @273
    _ZN2KE7ConsoleC2ERSo @274
    _ZN2KE7ConsoleD0Ev @275
    _ZN2KE7ConsoleD1Ev @276
    _ZN2KE7ConsoleD2Ev @277
    _ZN2KE7ConsolelsIA10_cEERS0_RKT_ @278
    _ZN2KE7ConsolelsIA12_cEERS0_RKT_ @279
    _ZN2KE7ConsolelsIA13_cEERS0_RKT_ @280
    _ZN2KE7ConsolelsIA14_cEERS0_RKT_ @281
    _ZN2KE7ConsolelsIA15_cEERS0_RKT_ @282
    _ZN2KE7ConsolelsIA16_cEERS0_RKT_ @283
    _ZN2KE7ConsolelsIA17_cEERS0_RKT_ @284
    _ZN2KE7ConsolelsIA18_cEERS0_RKT_ @285
    _ZN2KE7ConsolelsIA19_cEERS0_RKT_ @286
    _ZN2KE7ConsolelsIA20_cEERS0_RKT_ @287
    _ZN2KE7ConsolelsIA21_cEERS0_RKT_ @288
    _ZN2KE7ConsolelsIA22_cEERS0_RKT_ @289
    _ZN2KE7ConsolelsIA23_cEERS0_RKT_ @290
    _ZN2KE7ConsolelsIA24_cEERS0_RKT_ @291
    _ZN2KE7ConsolelsIA25_cEERS0_RKT_ @292
    _ZN2KE7ConsolelsIA26_cEERS0_RKT_ @293
    _ZN2KE7ConsolelsIA27_cEERS0_RKT_ @294
    _ZN2KE7ConsolelsIA28_cEERS0_RKT_ @295
    _ZN2KE7ConsolelsIA2_cEERS0_RKT_ @296
    _ZN2KE7ConsolelsIA30_cEERS0_RKT_ @297
    _ZN2KE7ConsolelsIA31_cEERS0_RKT_ @298
    _ZN2KE7ConsolelsIA32_cEERS0_RKT_ @299
    _ZN2KE7ConsolelsIA36_cEERS0_RKT_ @300
    _ZN2KE7ConsolelsIA37_cEERS0_RKT_ @301
    _ZN2KE7ConsolelsIA38_cEERS0_RKT_ @302
    _ZN2KE7ConsolelsIA39_cEERS0_RKT_ @303
    _ZN2KE7ConsolelsIA3_cEERS0_RKT_ @304
    _ZN2KE7ConsolelsIA45_cEERS0_RKT_ @305
    _ZN2KE7ConsolelsIA4_cEERS0_RKT_ @306
    _ZN2KE7ConsolelsIA51_cEERS0_RKT_ @307
    _ZN2KE7ConsolelsIA5_cEERS0_RKT_ @308
    _ZN2KE7ConsolelsIA7_cEERS0_RKT_ @309
    _ZN2KE7ConsolelsIA9_cEERS0_RKT_ @310
    _ZN2KE7ConsolelsIN8tinyxml28XMLErrorEEERS0_RKT_ @311
    _ZN2KE7ConsolelsIPKcEERS0_RKT_ @312
    _ZN2KE7ConsolelsISsEERS0_RKT_ @313
    _ZN2KE7ConsolelsIiEERS0_RKT_ @314
    _ZN2KE7ConsolelsIjEERS0_RKT_ @315
    _ZN2KE7HUDText10renderTextEv @316
    _ZN2KE7HUDText6onDrawEv @317
    _ZN2KE7HUDTextC1ERKNS_5PointEiPKNS_4FontERKSsRKNS_5ColorE @318
    _ZN2KE7HUDTextC2ERKNS_5PointEiPKNS_4FontERKSsRKNS_5ColorE @319
    _ZN2KE7HUDTextD0Ev @320
    _ZN2KE7HUDTextD1Ev @321
    _ZN2KE7Library10getTextureERKSs @322
    _ZN2KE7Library10getTilesetERKSs @323
    _ZN2KE7Library10loadMusicsERKSs @324
    _ZN2KE7Library10loadSoundsERKSs @325
    _ZN2KE7Library11loadCursorsERKSs @326
    _ZN2KE7Library12loadTexturesERKSs @327
    _ZN2KE7Library12loadTilesetsERKSs @328
    _ZN2KE7Library4quitEv @329
    _ZN2KE7Library7getFontERKSs @330
    _ZN2KE7Library7libraryE @331 DATA
    _ZN2KE7Library8getMusicERKSs @332
    _ZN2KE7Library8getSoundERKSs @333
    _ZN2KE7Library9getCursorERKSs @334
    _ZN2KE7Library9loadFontsERKSs @335
    _ZN2KE7LibraryC1Ev @336
    _ZN2KE7LibraryC2Ev @337
    _ZN2KE7LibraryD1Ev @338
    _ZN2KE7Pointer3decEv @339
    _ZN2KE7Pointer3incEv @340
    _ZN2KE7Pointer7destroyEv @341
    _ZN2KE7Pointer8getCountEv @342
    _ZN2KE7Pointer9getObjectEv @343
    _ZN2KE7PointerC1EPNS_6ObjectE @344
    _ZN2KE7PointerC2EPNS_6ObjectE @345
    _ZN2KE7PointerD1Ev @346
    _ZN2KE7PointerD2Ev @347
    _ZN2KE7Surface12loadFromFileERKSs @348
    _ZN2KE7Surface4loadEP11SDL_Surface @349
    _ZN2KE7Surface6createEP11SDL_Surface @350
    _ZN2KE7Surface6createERKNS_5PointEPK15SDL_PixelFormat @351
    _ZN2KE7Surface6createERKNS_5PointEiPc @352
    _ZN2KE7Surface6unloadEv @353
    _ZN2KE7SurfaceC1Ev @354
    _ZN2KE7SurfaceC2Ev @355
    _ZN2KE7SurfaceD1Ev @356
    _ZN2KE7SurfaceD2Ev @357
    _ZN2KE7Texture12loadFromFileERKSs @358
    _ZN2KE7Texture15loadFromSurfaceERKNS_7SurfaceE @359
    _ZN2KE7Texture4loadEP11SDL_TextureRKNS_5PointE @360
    _ZN2KE7Texture6unloadEv @361
    _ZN2KE7Texture7getNameEv @362
    _ZN2KE7TextureC1Ev @363
    _ZN2KE7TextureC2Ev @364
    _ZN2KE7TextureD1Ev @365
    _ZN2KE7TextureD2Ev @366
    _ZN2KE7Tileset12loadFromFileERKSs @367
    _ZN2KE7TilesetC1Ev @368
    _ZN2KE7TilesetC2Ev @369
    _ZN2KE7TilesetD1Ev @370
    _ZN2KE7TilesetD2Ev @371
    _ZN2KE7Warning11numWarningsE @372 DATA
    _ZN2KE7WarningC1Ev @373
    _ZN2KE7WarningC2Ev @374
    _ZN2KE7WarningD0Ev @375
    _ZN2KE7WarningD1Ev @376
    _ZN2KE8Geometry8collidesERKNS_4LineERKNS_4RectE @377
    _ZN2KE8Geometry8collidesERKNS_4LineERKNS_6CircleE @378
    _ZN2KE8Geometry8collidesERKNS_4LineES3_ @379
    _ZN2KE8Geometry8collidesERKNS_4RectERKNS_6CircleE @380
    _ZN2KE8Geometry8collidesERKNS_4RectES3_ @381
    _ZN2KE8Geometry8collidesERKNS_5PointERKNS_4LineE @382
    _ZN2KE8Geometry8collidesERKNS_5PointERKNS_4RectE @383
    _ZN2KE8Geometry8collidesERKNS_5PointERKNS_6CircleE @384
    _ZN2KE8Geometry8collidesERKNS_5PointES3_ @385
    _ZN2KE8Geometry8collidesERKNS_6CircleES3_ @386
    _ZN2KE8Geometry9intersectERKNS_4LineERKNS_4RectE @387
    _ZN2KE8Geometry9intersectERKNS_4LineES3_ @388
    _ZN2KE8Geometry9intersectERKNS_4RectES3_ @389
    _ZN2KE8InstanceINS_6ObjectEE10setPointerEPNS_7PointerE @390
    _ZN2KE8InstanceINS_6ObjectEE13destroyObjectEv @391
    _ZN2KE8InstanceINS_6ObjectEE6createEPS1_ @392
    _ZN2KE8InstanceINS_6ObjectEEC1Ev @393
    _ZN2KE8InstanceINS_6ObjectEED1Ev @394
    _ZN2KE8Renderer10renderFillERKNS_4RectERKNS_5ColorE @395
    _ZN2KE8Renderer13captureScreenEv @396
    _ZN2KE8Renderer4loadEP12SDL_RendererPKNS_6WindowE @397
    _ZN2KE8Renderer4quitEv @398
    _ZN2KE8Renderer6createERKNS_6WindowE @399
    _ZN2KE8Renderer6renderERKNS_4LineERKNS_5ColorE @400
    _ZN2KE8Renderer6renderERKNS_4RectERKNS_5ColorE @401
    _ZN2KE8Renderer6renderERKNS_5ColorE @402
    _ZN2KE8Renderer6renderERKNS_5PointERKNS_5ColorE @403
    _ZN2KE8Renderer6renderERKNS_7TextureERKNS_4RectES6_ @404
    _ZN2KE8Renderer6unloadEv @405
    _ZN2KE8Renderer7presentEv @406
    _ZN2KE8Renderer8setColorERKNS_5ColorE @407
    _ZN2KE8RendererC1Ev @408
    _ZN2KE8RendererC2Ev @409
    _ZN2KE9AnimationC1EOS0_ @410
    _ZN2KE9AnimationC1EiRKSt6vectorIjSaIjEE @411
    _ZN2KE9AnimationC2EiRKSt6vectorIjSaIjEE @412
    _ZN2KE9AnimationD1Ev @413
    _ZN2KE9HUDObjectC2ERKNS_5PointEi @414
    _ZN2KE9HUDObjectD0Ev @415
    _ZN2KE9HUDObjectD1Ev @416
    _ZN2KE9HUDObjectD2Ev @417
    _ZN8SDL_RectC2Ev @418
    _ZN8tinyxml210XMLComment9ParseDeepEPcPNS_7StrPairE @419
    _ZN8tinyxml210XMLComment9ToCommentEv @420
    _ZN8tinyxml210XMLCommentC1EPNS_11XMLDocumentE @421
    _ZN8tinyxml210XMLCommentC2EPNS_11XMLDocumentE @422
    _ZN8tinyxml210XMLCommentD0Ev @423
    _ZN8tinyxml210XMLCommentD1Ev @424
    _ZN8tinyxml210XMLCommentD2Ev @425
    _ZN8tinyxml210XMLElement12SetAttributeEPKcS2_ @426
    _ZN8tinyxml210XMLElement13FindAttributeEPKc @427
    _ZN8tinyxml210XMLElement15DeleteAttributeEPKc @428
    _ZN8tinyxml210XMLElement15ParseAttributesEPc @429
    _ZN8tinyxml210XMLElement21FindOrCreateAttributeEPKc @430
    _ZN8tinyxml210XMLElement7SetNameEPKcb @431
    _ZN8tinyxml210XMLElement7SetTextEPKc @432
    _ZN8tinyxml210XMLElement7SetTextEb @433
    _ZN8tinyxml210XMLElement7SetTextEd @434
    _ZN8tinyxml210XMLElement7SetTextEf @435
    _ZN8tinyxml210XMLElement7SetTextEi @436
    _ZN8tinyxml210XMLElement7SetTextEj @437
    _ZN8tinyxml210XMLElement9ParseDeepEPcPNS_7StrPairE @438
    _ZN8tinyxml210XMLElement9ToElementEv @439
    _ZN8tinyxml210XMLElementC1EPNS_11XMLDocumentE @440
    _ZN8tinyxml210XMLElementC2EPNS_11XMLDocumentE @441
    _ZN8tinyxml210XMLElementD0Ev @442
    _ZN8tinyxml210XMLElementD1Ev @443
    _ZN8tinyxml210XMLElementD2Ev @444
    _ZN8tinyxml210XMLPrinter10PrintSpaceEi @445
    _ZN8tinyxml210XMLPrinter10PushHeaderEbb @446
    _ZN8tinyxml210XMLPrinter10VisitEnterERKNS_10XMLElementEPKNS_12XMLAttributeE @447
    _ZN8tinyxml210XMLPrinter10VisitEnterERKNS_11XMLDocumentE @448
    _ZN8tinyxml210XMLPrinter11CompactModeERKNS_10XMLElementE @449
    _ZN8tinyxml210XMLPrinter11OpenElementEPKcb @450
    _ZN8tinyxml210XMLPrinter11PrintStringEPKcb @451
    _ZN8tinyxml210XMLPrinter11PushCommentEPKc @452
    _ZN8tinyxml210XMLPrinter11PushUnknownEPKc @453
    _ZN8tinyxml210XMLPrinter11SealElementEv @454
    _ZN8tinyxml210XMLPrinter12CloseElementEb @455
    _ZN8tinyxml210XMLPrinter13PushAttributeEPKcS2_ @456
    _ZN8tinyxml210XMLPrinter13PushAttributeEPKcb @457
    _ZN8tinyxml210XMLPrinter13PushAttributeEPKcd @458
    _ZN8tinyxml210XMLPrinter13PushAttributeEPKci @459
    _ZN8tinyxml210XMLPrinter13PushAttributeEPKcj @460
    _ZN8tinyxml210XMLPrinter15PushDeclarationEPKc @461
    _ZN8tinyxml210XMLPrinter5PrintEPKcz @462
    _ZN8tinyxml210XMLPrinter5VisitERKNS_10XMLCommentE @463
    _ZN8tinyxml210XMLPrinter5VisitERKNS_10XMLUnknownE @464
    _ZN8tinyxml210XMLPrinter5VisitERKNS_14XMLDeclarationE @465
    _ZN8tinyxml210XMLPrinter5VisitERKNS_7XMLTextE @466
    _ZN8tinyxml210XMLPrinter8PushTextEPKcb @467
    _ZN8tinyxml210XMLPrinter8PushTextEb @468
    _ZN8tinyxml210XMLPrinter8PushTextEd @469
    _ZN8tinyxml210XMLPrinter8PushTextEf @470
    _ZN8tinyxml210XMLPrinter8PushTextEi @471
    _ZN8tinyxml210XMLPrinter8PushTextEj @472
    _ZN8tinyxml210XMLPrinter9VisitExitERKNS_10XMLElementE @473
    _ZN8tinyxml210XMLPrinter9VisitExitERKNS_11XMLDocumentE @474
    _ZN8tinyxml210XMLPrinterC1EP6_iobufbi @475
    _ZN8tinyxml210XMLPrinterC2EP6_iobufbi @476
    _ZN8tinyxml210XMLPrinterD0Ev @477
    _ZN8tinyxml210XMLPrinterD1Ev @478
    _ZN8tinyxml210XMLUnknown9ParseDeepEPcPNS_7StrPairE @479
    _ZN8tinyxml210XMLUnknown9ToUnknownEv @480
    _ZN8tinyxml210XMLUnknownC1EPNS_11XMLDocumentE @481
    _ZN8tinyxml210XMLUnknownC2EPNS_11XMLDocumentE @482
    _ZN8tinyxml210XMLUnknownD0Ev @483
    _ZN8tinyxml210XMLUnknownD1Ev @484
    _ZN8tinyxml210XMLUnknownD2Ev @485
    _ZN8tinyxml210XMLVisitor10VisitEnterERKNS_10XMLElementEPKNS_12XMLAttributeE @486
    _ZN8tinyxml210XMLVisitor10VisitEnterERKNS_11XMLDocumentE @487
    _ZN8tinyxml210XMLVisitor5VisitERKNS_10XMLCommentE @488
    _ZN8tinyxml210XMLVisitor5VisitERKNS_10XMLUnknownE @489
    _ZN8tinyxml210XMLVisitor5VisitERKNS_14XMLDeclarationE @490
    _ZN8tinyxml210XMLVisitor5VisitERKNS_7XMLTextE @491
    _ZN8tinyxml210XMLVisitor9VisitExitERKNS_10XMLElementE @492
    _ZN8tinyxml210XMLVisitor9VisitExitERKNS_11XMLDocumentE @493
    _ZN8tinyxml210XMLVisitorC2Ev @494
    _ZN8tinyxml210XMLVisitorD0Ev @495
    _ZN8tinyxml210XMLVisitorD1Ev @496
    _ZN8tinyxml210XMLVisitorD2Ev @497
    _ZN8tinyxml211XMLDocument10NewCommentEPKc @498
    _ZN8tinyxml211XMLDocument10NewElementEPKc @499
    _ZN8tinyxml211XMLDocument10NewUnknownEPKc @500
    _ZN8tinyxml211XMLDocument10ToDocumentEv @501
    _ZN8tinyxml211XMLDocument14NewDeclarationEPKc @502
    _ZN8tinyxml211XMLDocument5ClearEv @503
    _ZN8tinyxml211XMLDocument5ParseEPKcj @504
    _ZN8tinyxml211XMLDocument7NewTextEPKc @505
    _ZN8tinyxml211XMLDocument8IdentifyEPcPPNS_7XMLNodeE @506
    _ZN8tinyxml211XMLDocument8LoadFileEP6_iobuf @507
    _ZN8tinyxml211XMLDocument8LoadFileEPKc @508
    _ZN8tinyxml211XMLDocument8SaveFileEP6_iobufb @509
    _ZN8tinyxml211XMLDocument8SaveFileEPKcb @510
    _ZN8tinyxml211XMLDocument8SetErrorENS_8XMLErrorEPKcS3_ @511
    _ZN8tinyxml211XMLDocumentC1EbNS_10WhitespaceE @512
    _ZN8tinyxml211XMLDocumentC2EbNS_10WhitespaceE @513
    _ZN8tinyxml211XMLDocumentD0Ev @514
    _ZN8tinyxml211XMLDocumentD1Ev @515
    _ZN8tinyxml211XMLDocumentD2Ev @516
    _ZN8tinyxml212XMLAttribute12SetAttributeEPKc @517
    _ZN8tinyxml212XMLAttribute12SetAttributeEb @518
    _ZN8tinyxml212XMLAttribute12SetAttributeEd @519
    _ZN8tinyxml212XMLAttribute12SetAttributeEf @520
    _ZN8tinyxml212XMLAttribute12SetAttributeEi @521
    _ZN8tinyxml212XMLAttribute12SetAttributeEj @522
    _ZN8tinyxml212XMLAttribute7SetNameEPKc @523
    _ZN8tinyxml212XMLAttribute9ParseDeepEPcb @524
    _ZN8tinyxml212XMLAttributeC1Ev @525
    _ZN8tinyxml212XMLAttributeD0Ev @526
    _ZN8tinyxml212XMLAttributeD1Ev @527
    _ZN8tinyxml214XMLDeclaration13ToDeclarationEv @528
    _ZN8tinyxml214XMLDeclaration9ParseDeepEPcPNS_7StrPairE @529
    _ZN8tinyxml214XMLDeclarationC1EPNS_11XMLDocumentE @530
    _ZN8tinyxml214XMLDeclarationC2EPNS_11XMLDocumentE @531
    _ZN8tinyxml214XMLDeclarationD0Ev @532
    _ZN8tinyxml214XMLDeclarationD1Ev @533
    _ZN8tinyxml214XMLDeclarationD2Ev @534
    _ZN8tinyxml27MemPoolC2Ev @535
    _ZN8tinyxml27MemPoolD0Ev @536
    _ZN8tinyxml27MemPoolD1Ev @537
    _ZN8tinyxml27MemPoolD2Ev @538
    _ZN8tinyxml27StrPair14SetInternedStrEPKc @539
    _ZN8tinyxml27StrPair18CollapseWhitespaceEv @540
    _ZN8tinyxml27StrPair3SetEPcS1_i @541
    _ZN8tinyxml27StrPair5ResetEv @542
    _ZN8tinyxml27StrPair6GetStrEv @543
    _ZN8tinyxml27StrPair6SetStrEPKci @544
    _ZN8tinyxml27StrPair9ParseNameEPc @545
    _ZN8tinyxml27StrPair9ParseTextEPcPKci @546
    _ZN8tinyxml27StrPairC1Ev @547
    _ZN8tinyxml27StrPairD1Ev @548
    _ZN8tinyxml27StrPairD2Ev @549
    _ZN8tinyxml27XMLNode10FirstChildEv @550
    _ZN8tinyxml27XMLNode10ToDocumentEv @551
    _ZN8tinyxml27XMLNode11DeleteChildEPS0_ @552
    _ZN8tinyxml27XMLNode11GetDocumentEv @553
    _ZN8tinyxml27XMLNode13ToDeclarationEv @554
    _ZN8tinyxml27XMLNode14DeleteChildrenEv @555
    _ZN8tinyxml27XMLNode14InsertEndChildEPS0_ @556
    _ZN8tinyxml27XMLNode16InsertAfterChildEPS0_S1_ @557
    _ZN8tinyxml27XMLNode16InsertFirstChildEPS0_ @558
    _ZN8tinyxml27XMLNode17FirstChildElementEPKc @559
    _ZN8tinyxml27XMLNode6ToTextEv @560
    _ZN8tinyxml27XMLNode6UnlinkEPS0_ @561
    _ZN8tinyxml27XMLNode8SetValueEPKcb @562
    _ZN8tinyxml27XMLNode9ParseDeepEPcPNS_7StrPairE @563
    _ZN8tinyxml27XMLNode9ToCommentEv @564
    _ZN8tinyxml27XMLNode9ToElementEv @565
    _ZN8tinyxml27XMLNode9ToUnknownEv @566
    _ZN8tinyxml27XMLNodeC1EPNS_11XMLDocumentE @567
    _ZN8tinyxml27XMLNodeC2EPNS_11XMLDocumentE @568
    _ZN8tinyxml27XMLNodeD0Ev @569
    _ZN8tinyxml27XMLNodeD1Ev @570
    _ZN8tinyxml27XMLNodeD2Ev @571
    _ZN8tinyxml27XMLText6ToTextEv @572
    _ZN8tinyxml27XMLText8SetCDataEb @573
    _ZN8tinyxml27XMLText9ParseDeepEPcPNS_7StrPairE @574
    _ZN8tinyxml27XMLTextC1EPNS_11XMLDocumentE @575
    _ZN8tinyxml27XMLTextD0Ev @576
    _ZN8tinyxml27XMLTextD1Ev @577
    _ZN8tinyxml27XMLUtil10IsNameCharEh @578
    _ZN8tinyxml27XMLUtil10ToUnsignedEPKcPj @579
    _ZN8tinyxml27XMLUtil11StringEqualEPKcS2_i @580
    _ZN8tinyxml27XMLUtil12IsWhiteSpaceEc @581
    _ZN8tinyxml27XMLUtil14SkipWhiteSpaceEPKc @582
    _ZN8tinyxml27XMLUtil14SkipWhiteSpaceEPc @583
    _ZN8tinyxml27XMLUtil15GetCharacterRefEPKcPcPi @584
    _ZN8tinyxml27XMLUtil15IsNameStartCharEh @585
    _ZN8tinyxml27XMLUtil18ConvertUTF32ToUTF8EmPcPi @586
    _ZN8tinyxml27XMLUtil18IsUTF8ContinuationEc @587
    _ZN8tinyxml27XMLUtil5ToIntEPKcPi @588
    _ZN8tinyxml27XMLUtil5ToStrEbPci @589
    _ZN8tinyxml27XMLUtil5ToStrEdPci @590
    _ZN8tinyxml27XMLUtil5ToStrEfPci @591
    _ZN8tinyxml27XMLUtil5ToStrEiPci @592
    _ZN8tinyxml27XMLUtil5ToStrEjPci @593
    _ZN8tinyxml27XMLUtil6ToBoolEPKcPb @594
    _ZN8tinyxml27XMLUtil7ReadBOMEPKcPb @595
    _ZN8tinyxml27XMLUtil7ToFloatEPKcPf @596
    _ZN8tinyxml27XMLUtil8ToDoubleEPKcPd @597
    _ZN8tinyxml28DynArrayIPKcLi10EE14EnsureCapacityEi @598
    _ZN8tinyxml28DynArrayIPKcLi10EE3PopEv @599
    _ZN8tinyxml28DynArrayIPKcLi10EE4PushES2_ @600
    _ZN8tinyxml28DynArrayIPKcLi10EEC1Ev @601
    _ZN8tinyxml28DynArrayIPKcLi10EED1Ev @602
    _ZN8tinyxml28DynArrayIPNS_8MemPoolTILi36EE5BlockELi10EE14EnsureCapacityEi @603
    _ZN8tinyxml28DynArrayIPNS_8MemPoolTILi36EE5BlockELi10EE4PushES4_ @604
    _ZN8tinyxml28DynArrayIPNS_8MemPoolTILi36EE5BlockELi10EEC1Ev @605
    _ZN8tinyxml28DynArrayIPNS_8MemPoolTILi36EE5BlockELi10EED1Ev @606
    _ZN8tinyxml28DynArrayIPNS_8MemPoolTILi36EE5BlockELi10EEixEi @607
    _ZN8tinyxml28DynArrayIPNS_8MemPoolTILi44EE5BlockELi10EE14EnsureCapacityEi @608
    _ZN8tinyxml28DynArrayIPNS_8MemPoolTILi44EE5BlockELi10EE4PushES4_ @609
    _ZN8tinyxml28DynArrayIPNS_8MemPoolTILi44EE5BlockELi10EEC1Ev @610
    _ZN8tinyxml28DynArrayIPNS_8MemPoolTILi44EE5BlockELi10EED1Ev @611
    _ZN8tinyxml28DynArrayIPNS_8MemPoolTILi44EE5BlockELi10EEixEi @612
    _ZN8tinyxml28DynArrayIPNS_8MemPoolTILi48EE5BlockELi10EE14EnsureCapacityEi @613
    _ZN8tinyxml28DynArrayIPNS_8MemPoolTILi48EE5BlockELi10EE4PushES4_ @614
    _ZN8tinyxml28DynArrayIPNS_8MemPoolTILi48EE5BlockELi10EEC1Ev @615
    _ZN8tinyxml28DynArrayIPNS_8MemPoolTILi48EE5BlockELi10EED1Ev @616
    _ZN8tinyxml28DynArrayIPNS_8MemPoolTILi48EE5BlockELi10EEixEi @617
    _ZN8tinyxml28DynArrayIPNS_8MemPoolTILi52EE5BlockELi10EE14EnsureCapacityEi @618
    _ZN8tinyxml28DynArrayIPNS_8MemPoolTILi52EE5BlockELi10EE4PushES4_ @619
    _ZN8tinyxml28DynArrayIPNS_8MemPoolTILi52EE5BlockELi10EEC1Ev @620
    _ZN8tinyxml28DynArrayIPNS_8MemPoolTILi52EE5BlockELi10EED1Ev @621
    _ZN8tinyxml28DynArrayIPNS_8MemPoolTILi52EE5BlockELi10EEixEi @622
    _ZN8tinyxml28DynArrayIcLi20EE14EnsureCapacityEi @623
    _ZN8tinyxml28DynArrayIcLi20EE4PushEc @624
    _ZN8tinyxml28DynArrayIcLi20EE7PushArrEi @625
    _ZN8tinyxml28DynArrayIcLi20EEC1Ev @626
    _ZN8tinyxml28DynArrayIcLi20EED1Ev @627
    _ZN8tinyxml28MemPoolTILi36EE10SetTrackedEv @628
    _ZN8tinyxml28MemPoolTILi36EE4FreeEPv @629
    _ZN8tinyxml28MemPoolTILi36EE5AllocEv @630
    _ZN8tinyxml28MemPoolTILi36EEC1Ev @631
    _ZN8tinyxml28MemPoolTILi36EED0Ev @632
    _ZN8tinyxml28MemPoolTILi36EED1Ev @633
    _ZN8tinyxml28MemPoolTILi44EE10SetTrackedEv @634
    _ZN8tinyxml28MemPoolTILi44EE4FreeEPv @635
    _ZN8tinyxml28MemPoolTILi44EE5AllocEv @636
    _ZN8tinyxml28MemPoolTILi44EEC1Ev @637
    _ZN8tinyxml28MemPoolTILi44EED0Ev @638
    _ZN8tinyxml28MemPoolTILi44EED1Ev @639
    _ZN8tinyxml28MemPoolTILi48EE10SetTrackedEv @640
    _ZN8tinyxml28MemPoolTILi48EE4FreeEPv @641
    _ZN8tinyxml28MemPoolTILi48EE5AllocEv @642
    _ZN8tinyxml28MemPoolTILi48EEC1Ev @643
    _ZN8tinyxml28MemPoolTILi48EED0Ev @644
    _ZN8tinyxml28MemPoolTILi48EED1Ev @645
    _ZN8tinyxml28MemPoolTILi52EE10SetTrackedEv @646
    _ZN8tinyxml28MemPoolTILi52EE4FreeEPv @647
    _ZN8tinyxml28MemPoolTILi52EE5AllocEv @648
    _ZN8tinyxml28MemPoolTILi52EEC1Ev @649
    _ZN8tinyxml28MemPoolTILi52EED0Ev @650
    _ZN8tinyxml28MemPoolTILi52EED1Ev @651
    _ZN9SDL_ColorC2Ev @652
    _ZN9SDL_PointC2Ev @653
    _ZN9__gnu_cxx13new_allocatorIN2KE4RectEE10deallocateEPS2_j @654
    _ZN9__gnu_cxx13new_allocatorIN2KE4RectEE7destroyIS2_EEvPT_ @655
    _ZN9__gnu_cxx13new_allocatorIN2KE4RectEE8allocateEjPKv @656
    _ZN9__gnu_cxx13new_allocatorIN2KE4RectEE9constructIS2_IRKS2_EEEvPT_DpOT0_ @657
    _ZN9__gnu_cxx13new_allocatorIN2KE4RectEE9constructIS2_IS2_EEEvPT_DpOT0_ @658
    _ZN9__gnu_cxx13new_allocatorIN2KE4RectEEC2Ev @659
    _ZN9__gnu_cxx13new_allocatorIN2KE4RectEED2Ev @660
    _ZN9__gnu_cxx13new_allocatorIP13_SDL_JoystickE10deallocateEPS2_j @661
    _ZN9__gnu_cxx13new_allocatorIP13_SDL_JoystickE8allocateEjPKv @662
    _ZN9__gnu_cxx13new_allocatorIP13_SDL_JoystickEC2ERKS3_ @663
    _ZN9__gnu_cxx13new_allocatorIP13_SDL_JoystickEC2Ev @664
    _ZN9__gnu_cxx13new_allocatorIP13_SDL_JoystickED2Ev @665
    _ZN9__gnu_cxx13new_allocatorISsE10deallocateEPSsj @666
    _ZN9__gnu_cxx13new_allocatorISsE7destroyISsEEvPT_ @667
    _ZN9__gnu_cxx13new_allocatorISsE8allocateEjPKv @668
    _ZN9__gnu_cxx13new_allocatorISsE9constructISsIRKSsEEEvPT_DpOT0_ @669
    _ZN9__gnu_cxx13new_allocatorISsEC2Ev @670
    _ZN9__gnu_cxx13new_allocatorISsED2Ev @671
    _ZN9__gnu_cxx13new_allocatorISt10_List_nodeIN2KE8InstanceINS2_6ObjectEEEEE10deallocateEPS6_j @672
    _ZN9__gnu_cxx13new_allocatorISt10_List_nodeIN2KE8InstanceINS2_6ObjectEEEEE7destroyIS6_EEvPT_ @673
    _ZN9__gnu_cxx13new_allocatorISt10_List_nodeIN2KE8InstanceINS2_6ObjectEEEEE8allocateEjPKv @674
    _ZN9__gnu_cxx13new_allocatorISt10_List_nodeIN2KE8InstanceINS2_6ObjectEEEEE9constructIS6_IS5_EEEvPT_DpOT0_ @675
    _ZN9__gnu_cxx13new_allocatorISt10_List_nodeIN2KE8InstanceINS2_6ObjectEEEEEC2Ev @676
    _ZN9__gnu_cxx13new_allocatorISt10_List_nodeIN2KE8InstanceINS2_6ObjectEEEEED2Ev @677
    _ZN9__gnu_cxx13new_allocatorISt13_Rb_tree_nodeISt4pairIKSsN2KE9AnimationEEEE10deallocateEPS7_j @678
    _ZN9__gnu_cxx13new_allocatorISt13_Rb_tree_nodeISt4pairIKSsN2KE9AnimationEEEE7destroyIS7_EEvPT_ @679
    _ZN9__gnu_cxx13new_allocatorISt13_Rb_tree_nodeISt4pairIKSsN2KE9AnimationEEEE8allocateEjPKv @680
    _ZN9__gnu_cxx13new_allocatorISt13_Rb_tree_nodeISt4pairIKSsN2KE9AnimationEEEE9constructIS7_IS2_ISsS5_EEEEvPT_DpOT0_ @681
    _ZN9__gnu_cxx13new_allocatorISt13_Rb_tree_nodeISt4pairIKSsN2KE9AnimationEEEEC2Ev @682
    _ZN9__gnu_cxx13new_allocatorISt13_Rb_tree_nodeISt4pairIKSsN2KE9AnimationEEEED2Ev @683
    _ZN9__gnu_cxx13new_allocatorISt13_Rb_tree_nodeISt4pairIKSsPN2KE4FontEEEE10deallocateEPS8_j @684
    _ZN9__gnu_cxx13new_allocatorISt13_Rb_tree_nodeISt4pairIKSsPN2KE4FontEEEE7destroyIS8_EEvPT_ @685
    _ZN9__gnu_cxx13new_allocatorISt13_Rb_tree_nodeISt4pairIKSsPN2KE4FontEEEE8allocateEjPKv @686
    _ZN9__gnu_cxx13new_allocatorISt13_Rb_tree_nodeISt4pairIKSsPN2KE4FontEEEE9constructIS8_IS7_EEEvPT_DpOT0_ @687
    _ZN9__gnu_cxx13new_allocatorISt13_Rb_tree_nodeISt4pairIKSsPN2KE4FontEEEEC2Ev @688
    _ZN9__gnu_cxx13new_allocatorISt13_Rb_tree_nodeISt4pairIKSsPN2KE4FontEEEED2Ev @689
    _ZN9__gnu_cxx13new_allocatorISt13_Rb_tree_nodeISt4pairIKSsPN2KE5MusicEEEE10deallocateEPS8_j @690
    _ZN9__gnu_cxx13new_allocatorISt13_Rb_tree_nodeISt4pairIKSsPN2KE5MusicEEEE7destroyIS8_EEvPT_ @691
    _ZN9__gnu_cxx13new_allocatorISt13_Rb_tree_nodeISt4pairIKSsPN2KE5MusicEEEE8allocateEjPKv @692
    _ZN9__gnu_cxx13new_allocatorISt13_Rb_tree_nodeISt4pairIKSsPN2KE5MusicEEEE9constructIS8_IS7_EEEvPT_DpOT0_ @693
    _ZN9__gnu_cxx13new_allocatorISt13_Rb_tree_nodeISt4pairIKSsPN2KE5MusicEEEEC2Ev @694
    _ZN9__gnu_cxx13new_allocatorISt13_Rb_tree_nodeISt4pairIKSsPN2KE5MusicEEEED2Ev @695
    _ZN9__gnu_cxx13new_allocatorISt13_Rb_tree_nodeISt4pairIKSsPN2KE5SoundEEEE10deallocateEPS8_j @696
    _ZN9__gnu_cxx13new_allocatorISt13_Rb_tree_nodeISt4pairIKSsPN2KE5SoundEEEE7destroyIS8_EEvPT_ @697
    _ZN9__gnu_cxx13new_allocatorISt13_Rb_tree_nodeISt4pairIKSsPN2KE5SoundEEEE8allocateEjPKv @698
    _ZN9__gnu_cxx13new_allocatorISt13_Rb_tree_nodeISt4pairIKSsPN2KE5SoundEEEE9constructIS8_IS7_EEEvPT_DpOT0_ @699
    _ZN9__gnu_cxx13new_allocatorISt13_Rb_tree_nodeISt4pairIKSsPN2KE5SoundEEEEC2Ev @700
    _ZN9__gnu_cxx13new_allocatorISt13_Rb_tree_nodeISt4pairIKSsPN2KE5SoundEEEED2Ev @701
    _ZN9__gnu_cxx13new_allocatorISt13_Rb_tree_nodeISt4pairIKSsPN2KE6CursorEEEE10deallocateEPS8_j @702
    _ZN9__gnu_cxx13new_allocatorISt13_Rb_tree_nodeISt4pairIKSsPN2KE6CursorEEEE7destroyIS8_EEvPT_ @703
    _ZN9__gnu_cxx13new_allocatorISt13_Rb_tree_nodeISt4pairIKSsPN2KE6CursorEEEE8allocateEjPKv @704
    _ZN9__gnu_cxx13new_allocatorISt13_Rb_tree_nodeISt4pairIKSsPN2KE6CursorEEEE9constructIS8_IS7_EEEvPT_DpOT0_ @705
    _ZN9__gnu_cxx13new_allocatorISt13_Rb_tree_nodeISt4pairIKSsPN2KE6CursorEEEEC2Ev @706
    _ZN9__gnu_cxx13new_allocatorISt13_Rb_tree_nodeISt4pairIKSsPN2KE6CursorEEEED2Ev @707
    _ZN9__gnu_cxx13new_allocatorISt13_Rb_tree_nodeISt4pairIKSsPN2KE7TextureEEEE10deallocateEPS8_j @708
    _ZN9__gnu_cxx13new_allocatorISt13_Rb_tree_nodeISt4pairIKSsPN2KE7TextureEEEE7destroyIS8_EEvPT_ @709
    _ZN9__gnu_cxx13new_allocatorISt13_Rb_tree_nodeISt4pairIKSsPN2KE7TextureEEEE8allocateEjPKv @710
    _ZN9__gnu_cxx13new_allocatorISt13_Rb_tree_nodeISt4pairIKSsPN2KE7TextureEEEE9constructIS8_IS7_EEEvPT_DpOT0_ @711
    _ZN9__gnu_cxx13new_allocatorISt13_Rb_tree_nodeISt4pairIKSsPN2KE7TextureEEEEC2Ev @712
    _ZN9__gnu_cxx13new_allocatorISt13_Rb_tree_nodeISt4pairIKSsPN2KE7TextureEEEED2Ev @713
    _ZN9__gnu_cxx13new_allocatorISt13_Rb_tree_nodeISt4pairIKSsPN2KE7TilesetEEEE10deallocateEPS8_j @714
    _ZN9__gnu_cxx13new_allocatorISt13_Rb_tree_nodeISt4pairIKSsPN2KE7TilesetEEEE7destroyIS8_EEvPT_ @715
    _ZN9__gnu_cxx13new_allocatorISt13_Rb_tree_nodeISt4pairIKSsPN2KE7TilesetEEEE8allocateEjPKv @716
    _ZN9__gnu_cxx13new_allocatorISt13_Rb_tree_nodeISt4pairIKSsPN2KE7TilesetEEEE9constructIS8_IS7_EEEvPT_DpOT0_ @717
    _ZN9__gnu_cxx13new_allocatorISt13_Rb_tree_nodeISt4pairIKSsPN2KE7TilesetEEEEC2Ev @718
    _ZN9__gnu_cxx13new_allocatorISt13_Rb_tree_nodeISt4pairIKSsPN2KE7TilesetEEEED2Ev @719
    _ZN9__gnu_cxx13new_allocatorIjE10deallocateEPjj @720
    _ZN9__gnu_cxx13new_allocatorIjE7destroyIjEEvPT_ @721
    _ZN9__gnu_cxx13new_allocatorIjE8allocateEjPKv @722
    _ZN9__gnu_cxx13new_allocatorIjE9constructIjIjEEEvPT_DpOT0_ @723
    _ZN9__gnu_cxx13new_allocatorIjEC2ERKS1_ @724
    _ZN9__gnu_cxx13new_allocatorIjEC2Ev @725
    _ZN9__gnu_cxx13new_allocatorIjED2Ev @726
    _ZN9__gnu_cxx14__alloc_traitsISaIjEE15_S_always_equalEv @727
    _ZN9__gnu_cxx14__alloc_traitsISaIjEE27_S_propagate_on_copy_assignEv @728
    _ZN9__gnu_cxx17__normal_iteratorIPKSsSt6vectorISsSaISsEEEC1ERKS2_ @729
    _ZN9__gnu_cxx17__normal_iteratorIPKSsSt6vectorISsSaISsEEEppEv @730
    _ZN9__gnu_cxx17__normal_iteratorIPKjSt6vectorIjSaIjEEEC1ERKS2_ @731
    _ZN9__gnu_cxx17__normal_iteratorIPSsSt6vectorISsSaISsEEEC1ERKS1_ @732
    _ZN9__gnu_cxx17__normal_iteratorIPSsSt6vectorISsSaISsEEEppEv @733
    _ZN9__gnu_cxx17__normal_iteratorIPjSt6vectorIjSaIjEEEC1ERKS1_ @734
    _ZN9__gnu_cxxmiIPKSsSt6vectorISsSaISsEEEENS_17__normal_iteratorIT_T0_E15difference_typeERKS9_SC_ @735
    _ZN9__gnu_cxxneIPKSsSt6vectorISsSaISsEEEEbRKNS_17__normal_iteratorIT_T0_EESB_ @736
    _ZN9__gnu_cxxneIPSsSt6vectorISsSaISsEEEEbRKNS_17__normal_iteratorIT_T0_EESA_ @737
    _ZNK2KE4Font15renderOnSurfaceERNS_7SurfaceERKSsRKNS_5ColorE @738
    _ZNK2KE4Font15renderOnTextureERNS_7TextureERKSsRKNS_5ColorE @739
    _ZNK2KE4FontcvP9_TTF_FontEv @740
    _ZNK2KE4Line10getRadiansEv @741
    _ZNK2KE4Line15getSqaredLengthEv @742
    _ZNK2KE4Line7getRectEv @743
    _ZNK2KE4Line9getLengthEv @744
    _ZNK2KE4Line9normalizeEv @745
    _ZNK2KE4LinecvbEv @746
    _ZNK2KE4Rect11getPositionEv @747
    _ZNK2KE4Rect4growERKNS_5PointE @748
    _ZNK2KE4Rect4moveERKNS_5PointE @749
    _ZNK2KE4Rect7getSizeEv @750
    _ZNK2KE4Rect9getCenterEv @751
    _ZNK2KE4RectcvP8SDL_RectEv @752
    _ZNK2KE4RectcvbEv @753
    _ZNK2KE5ColordvEf @754
    _ZNK2KE5ColormiERKS0_ @755
    _ZNK2KE5ColormlEf @756
    _ZNK2KE5ColorplERKS0_ @757
    _ZNK2KE5Point10getRadiansEv @758
    _ZNK2KE5Point16getSquaredLengthEv @759
    _ZNK2KE5Point9getLengthEv @760
    _ZNK2KE5Point9normalizeEv @761
    _ZNK2KE5PointcvP9SDL_PointEv @762
    _ZNK2KE5PointcvbEv @763
    _ZNK2KE5PointdvEf @764
    _ZNK2KE5PointeqERKS0_ @765
    _ZNK2KE5PointmiERKS0_ @766
    _ZNK2KE5PointmlEf @767
    _ZNK2KE5PointneERKS0_ @768
    _ZNK2KE5PointngEv @769
    _ZNK2KE5PointplERKS0_ @770
    _ZNK2KE5Scene12ObjectSorterILb0EEclEPKNS_6ObjectES5_ @771
    _ZNK2KE5Scene12ObjectSorterILb1EEclEPKNS_6ObjectES5_ @772
    _ZNK2KE5Scene12findInstanceERKSs @773
    _ZNK2KE6Circle11getPositionEv @774
    _ZNK2KE6Circle4growEd @775
    _ZNK2KE6Circle4moveERKNS_5PointE @776
    _ZNK2KE6Circle7getSizeEv @777
    _ZNK2KE6CirclecvbEv @778
    _ZNK2KE6CursorcvP10SDL_CursorEv @779
    _ZNK2KE6Object10getKeynameEv @780
    _ZNK2KE6Object11getPositionEv @781
    _ZNK2KE6Object4getZEv @782
    _ZNK2KE6Object7hasTagsEj @783
    _ZNK2KE6Object7isAliveEv @784
    _ZNK2KE6Window7getSizeEv @785
    _ZNK2KE6WindowcvP10SDL_WindowEv @786
    _ZNK2KE7Surface4blitERS0_RKNS_4RectE @787
    _ZNK2KE7Surface7getSizeEv @788
    _ZNK2KE7Surface9getFormatEv @789
    _ZNK2KE7SurfacecvP11SDL_SurfaceEv @790
    _ZNK2KE7Texture4drawERKNS_5PointERKNS_4RectE @791
    _ZNK2KE7Texture7getClipEv @792
    _ZNK2KE7Texture7getSizeEv @793
    _ZNK2KE7TexturecvP11SDL_TextureEv @794
    _ZNK2KE7Tileset12getAnimationERKSs @795
    _ZNK2KE7Tileset4drawERKNS_5PointERKNS_4RectEj @796
    _ZNK2KE7Tileset4drawERKNS_5PointEj @797
    _ZNK2KE8InstanceINS_6ObjectEE9getObjectEv @798
    _ZNK2KE8InstanceINS_6ObjectEEcvPS1_Ev @799
    _ZNK2KE8InstanceINS_6ObjectEEptEv @800
    _ZNK2KE8RenderercvP12SDL_RendererEv @801
    _ZNK2KE9Animation10getFrameAtEjbb @802
    _ZNK8tinyxml210XMLComment12ShallowCloneEPNS_11XMLDocumentE @803
    _ZNK8tinyxml210XMLComment12ShallowEqualEPKNS_7XMLNodeE @804
    _ZNK8tinyxml210XMLComment6AcceptEPNS_10XMLVisitorE @805
    _ZNK8tinyxml210XMLComment9ToCommentEv @806
    _ZNK8tinyxml210XMLElement11ClosingTypeEv @807
    _ZNK8tinyxml210XMLElement12IntAttributeEPKc @808
    _ZNK8tinyxml210XMLElement12QueryIntTextEPi @809
    _ZNK8tinyxml210XMLElement12ShallowCloneEPNS_11XMLDocumentE @810
    _ZNK8tinyxml210XMLElement12ShallowEqualEPKNS_7XMLNodeE @811
    _ZNK8tinyxml210XMLElement13FindAttributeEPKc @812
    _ZNK8tinyxml210XMLElement13QueryBoolTextEPb @813
    _ZNK8tinyxml210XMLElement14FirstAttributeEv @814
    _ZNK8tinyxml210XMLElement14QueryFloatTextEPf @815
    _ZNK8tinyxml210XMLElement15QueryDoubleTextEPd @816
    _ZNK8tinyxml210XMLElement17QueryIntAttributeEPKcPi @817
    _ZNK8tinyxml210XMLElement17QueryUnsignedTextEPj @818
    _ZNK8tinyxml210XMLElement4NameEv @819
    _ZNK8tinyxml210XMLElement6AcceptEPNS_10XMLVisitorE @820
    _ZNK8tinyxml210XMLElement7GetTextEv @821
    _ZNK8tinyxml210XMLElement9AttributeEPKcS2_ @822
    _ZNK8tinyxml210XMLElement9ToElementEv @823
    _ZNK8tinyxml210XMLUnknown12ShallowCloneEPNS_11XMLDocumentE @824
    _ZNK8tinyxml210XMLUnknown12ShallowEqualEPKNS_7XMLNodeE @825
    _ZNK8tinyxml210XMLUnknown6AcceptEPNS_10XMLVisitorE @826
    _ZNK8tinyxml210XMLUnknown9ToUnknownEv @827
    _ZNK8tinyxml211XMLDocument10PrintErrorEv @828
    _ZNK8tinyxml211XMLDocument10ToDocumentEv @829
    _ZNK8tinyxml211XMLDocument12ShallowCloneEPS0_ @830
    _ZNK8tinyxml211XMLDocument12ShallowEqualEPKNS_7XMLNodeE @831
    _ZNK8tinyxml211XMLDocument14WhitespaceModeEv @832
    _ZNK8tinyxml211XMLDocument15ProcessEntitiesEv @833
    _ZNK8tinyxml211XMLDocument5ErrorEv @834
    _ZNK8tinyxml211XMLDocument5PrintEPNS_10XMLPrinterE @835
    _ZNK8tinyxml211XMLDocument6AcceptEPNS_10XMLVisitorE @836
    _ZNK8tinyxml211XMLDocument6HasBOMEv @837
    _ZNK8tinyxml212XMLAttribute13QueryIntValueEPi @838
    _ZNK8tinyxml212XMLAttribute14QueryBoolValueEPb @839
    _ZNK8tinyxml212XMLAttribute15QueryFloatValueEPf @840
    _ZNK8tinyxml212XMLAttribute16QueryDoubleValueEPd @841
    _ZNK8tinyxml212XMLAttribute18QueryUnsignedValueEPj @842
    _ZNK8tinyxml212XMLAttribute4NameEv @843
    _ZNK8tinyxml212XMLAttribute4NextEv @844
    _ZNK8tinyxml212XMLAttribute5ValueEv @845
    _ZNK8tinyxml214XMLDeclaration12ShallowCloneEPNS_11XMLDocumentE @846
    _ZNK8tinyxml214XMLDeclaration12ShallowEqualEPKNS_7XMLNodeE @847
    _ZNK8tinyxml214XMLDeclaration13ToDeclarationEv @848
    _ZNK8tinyxml214XMLDeclaration6AcceptEPNS_10XMLVisitorE @849
    _ZNK8tinyxml27StrPair5EmptyEv @850
    _ZNK8tinyxml27XMLNode10FirstChildEv @851
    _ZNK8tinyxml27XMLNode10ToDocumentEv @852
    _ZNK8tinyxml27XMLNode11NextSiblingEv @853
    _ZNK8tinyxml27XMLNode13ToDeclarationEv @854
    _ZNK8tinyxml27XMLNode16LastChildElementEPKc @855
    _ZNK8tinyxml27XMLNode17FirstChildElementEPKc @856
    _ZNK8tinyxml27XMLNode18NextSiblingElementEPKc @857
    _ZNK8tinyxml27XMLNode22PreviousSiblingElementEPKc @858
    _ZNK8tinyxml27XMLNode5ValueEv @859
    _ZNK8tinyxml27XMLNode6ParentEv @860
    _ZNK8tinyxml27XMLNode6ToTextEv @861
    _ZNK8tinyxml27XMLNode9ToCommentEv @862
    _ZNK8tinyxml27XMLNode9ToElementEv @863
    _ZNK8tinyxml27XMLNode9ToUnknownEv @864
    _ZNK8tinyxml27XMLText12ShallowCloneEPNS_11XMLDocumentE @865
    _ZNK8tinyxml27XMLText12ShallowEqualEPKNS_7XMLNodeE @866
    _ZNK8tinyxml27XMLText5CDataEv @867
    _ZNK8tinyxml27XMLText6AcceptEPNS_10XMLVisitorE @868
    _ZNK8tinyxml27XMLText6ToTextEv @869
    _ZNK8tinyxml28DynArrayIPNS_8MemPoolTILi36EE5BlockELi10EE4SizeEv @870
    _ZNK8tinyxml28DynArrayIPNS_8MemPoolTILi44EE5BlockELi10EE4SizeEv @871
    _ZNK8tinyxml28DynArrayIPNS_8MemPoolTILi48EE5BlockELi10EE4SizeEv @872
    _ZNK8tinyxml28DynArrayIPNS_8MemPoolTILi52EE5BlockELi10EE4SizeEv @873
    _ZNK8tinyxml28MemPoolTILi36EE8ItemSizeEv @874
    _ZNK8tinyxml28MemPoolTILi44EE8ItemSizeEv @875
    _ZNK8tinyxml28MemPoolTILi48EE8ItemSizeEv @876
    _ZNK8tinyxml28MemPoolTILi52EE8ItemSizeEv @877
    _ZNK9__gnu_cxx13new_allocatorIN2KE4RectEE8max_sizeEv @878
    _ZNK9__gnu_cxx13new_allocatorIP13_SDL_JoystickE8max_sizeEv @879
    _ZNK9__gnu_cxx13new_allocatorISsE8max_sizeEv @880
    _ZNK9__gnu_cxx13new_allocatorISt10_List_nodeIN2KE8InstanceINS2_6ObjectEEEEE8max_sizeEv @881
    _ZNK9__gnu_cxx13new_allocatorISt13_Rb_tree_nodeISt4pairIKSsN2KE9AnimationEEEE8max_sizeEv @882
    _ZNK9__gnu_cxx13new_allocatorISt13_Rb_tree_nodeISt4pairIKSsPN2KE4FontEEEE8max_sizeEv @883
    _ZNK9__gnu_cxx13new_allocatorISt13_Rb_tree_nodeISt4pairIKSsPN2KE5MusicEEEE8max_sizeEv @884
    _ZNK9__gnu_cxx13new_allocatorISt13_Rb_tree_nodeISt4pairIKSsPN2KE5SoundEEEE8max_sizeEv @885
    _ZNK9__gnu_cxx13new_allocatorISt13_Rb_tree_nodeISt4pairIKSsPN2KE6CursorEEEE8max_sizeEv @886
    _ZNK9__gnu_cxx13new_allocatorISt13_Rb_tree_nodeISt4pairIKSsPN2KE7TextureEEEE8max_sizeEv @887
    _ZNK9__gnu_cxx13new_allocatorISt13_Rb_tree_nodeISt4pairIKSsPN2KE7TilesetEEEE8max_sizeEv @888
    _ZNK9__gnu_cxx13new_allocatorIjE8max_sizeEv @889
    _ZNK9__gnu_cxx17__normal_iteratorIPKSsSt6vectorISsSaISsEEE4baseEv @890
    _ZNK9__gnu_cxx17__normal_iteratorIPKSsSt6vectorISsSaISsEEEdeEv @891
    _ZNK9__gnu_cxx17__normal_iteratorIPKjSt6vectorIjSaIjEEE4baseEv @892
    _ZNK9__gnu_cxx17__normal_iteratorIPSsSt6vectorISsSaISsEEE4baseEv @893
    _ZNK9__gnu_cxx17__normal_iteratorIPSsSt6vectorISsSaISsEEEdeEv @894
    _ZNK9__gnu_cxx17__normal_iteratorIPjSt6vectorIjSaIjEEE4baseEv @895
    _ZNKSt10_Select1stISt4pairIKSsN2KE9AnimationEEEclERKS4_ @896
    _ZNKSt10_Select1stISt4pairIKSsN2KE9AnimationEEEclIS0_ISsS3_EEERNT_10first_typeERS8_ @897
    _ZNKSt10_Select1stISt4pairIKSsPN2KE4FontEEEclERKS5_ @898
    _ZNKSt10_Select1stISt4pairIKSsPN2KE4FontEEEclERS5_ @899
    _ZNKSt10_Select1stISt4pairIKSsPN2KE5MusicEEEclERKS5_ @900
    _ZNKSt10_Select1stISt4pairIKSsPN2KE5MusicEEEclERS5_ @901
    _ZNKSt10_Select1stISt4pairIKSsPN2KE5SoundEEEclERKS5_ @902
    _ZNKSt10_Select1stISt4pairIKSsPN2KE5SoundEEEclERS5_ @903
    _ZNKSt10_Select1stISt4pairIKSsPN2KE6CursorEEEclERKS5_ @904
    _ZNKSt10_Select1stISt4pairIKSsPN2KE6CursorEEEclERS5_ @905
    _ZNKSt10_Select1stISt4pairIKSsPN2KE7TextureEEEclERKS5_ @906
    _ZNKSt10_Select1stISt4pairIKSsPN2KE7TextureEEEclERS5_ @907
    _ZNKSt10_Select1stISt4pairIKSsPN2KE7TilesetEEEclERKS5_ @908
    _ZNKSt10_Select1stISt4pairIKSsPN2KE7TilesetEEEclERS5_ @909
    _ZNKSt12_Vector_baseIN2KE4RectESaIS1_EE19_M_get_Tp_allocatorEv @910
    _ZNKSt12_Vector_baseISsSaISsEE19_M_get_Tp_allocatorEv @911
    _ZNKSt12_Vector_baseIjSaIjEE19_M_get_Tp_allocatorEv @912
    _ZNKSt13move_iteratorIPN2KE4RectEE4baseEv @913
    _ZNKSt13move_iteratorIPN2KE4RectEEdeEv @914
    _ZNKSt13move_iteratorIPSsE4baseEv @915
    _ZNKSt13move_iteratorIPSsEdeEv @916
    _ZNKSt13move_iteratorIPjE4baseEv @917
    _ZNKSt14_List_iteratorIN2KE8InstanceINS0_6ObjectEEEEdeEv @918
    _ZNKSt14_List_iteratorIN2KE8InstanceINS0_6ObjectEEEEneERKS4_ @919
    _ZNKSt16initializer_listISsE3endEv @920
    _ZNKSt16initializer_listISsE4sizeEv @921
    _ZNKSt16initializer_listISsE5beginEv @922
    _ZNKSt17_Rb_tree_iteratorISt4pairIKSsN2KE9AnimationEEEeqERKS5_ @923
    _ZNKSt17_Rb_tree_iteratorISt4pairIKSsPN2KE4FontEEEdeEv @924
    _ZNKSt17_Rb_tree_iteratorISt4pairIKSsPN2KE4FontEEEeqERKS6_ @925
    _ZNKSt17_Rb_tree_iteratorISt4pairIKSsPN2KE4FontEEEneERKS6_ @926
    _ZNKSt17_Rb_tree_iteratorISt4pairIKSsPN2KE5MusicEEEdeEv @927
    _ZNKSt17_Rb_tree_iteratorISt4pairIKSsPN2KE5MusicEEEeqERKS6_ @928
    _ZNKSt17_Rb_tree_iteratorISt4pairIKSsPN2KE5MusicEEEneERKS6_ @929
    _ZNKSt17_Rb_tree_iteratorISt4pairIKSsPN2KE5SoundEEEdeEv @930
    _ZNKSt17_Rb_tree_iteratorISt4pairIKSsPN2KE5SoundEEEeqERKS6_ @931
    _ZNKSt17_Rb_tree_iteratorISt4pairIKSsPN2KE5SoundEEEneERKS6_ @932
    _ZNKSt17_Rb_tree_iteratorISt4pairIKSsPN2KE6CursorEEEdeEv @933
    _ZNKSt17_Rb_tree_iteratorISt4pairIKSsPN2KE6CursorEEEeqERKS6_ @934
    _ZNKSt17_Rb_tree_iteratorISt4pairIKSsPN2KE6CursorEEEneERKS6_ @935
    _ZNKSt17_Rb_tree_iteratorISt4pairIKSsPN2KE7TextureEEEdeEv @936
    _ZNKSt17_Rb_tree_iteratorISt4pairIKSsPN2KE7TextureEEEeqERKS6_ @937
    _ZNKSt17_Rb_tree_iteratorISt4pairIKSsPN2KE7TextureEEEneERKS6_ @938
    _ZNKSt17_Rb_tree_iteratorISt4pairIKSsPN2KE7TilesetEEEdeEv @939
    _ZNKSt17_Rb_tree_iteratorISt4pairIKSsPN2KE7TilesetEEEeqERKS6_ @940
    _ZNKSt17_Rb_tree_iteratorISt4pairIKSsPN2KE7TilesetEEEneERKS6_ @941
    _ZNKSt20_List_const_iteratorIN2KE8InstanceINS0_6ObjectEEEEdeEv @942
    _ZNKSt20_List_const_iteratorIN2KE8InstanceINS0_6ObjectEEEEneERKS4_ @943
    _ZNKSt23_Rb_tree_const_iteratorISt4pairIKSsN2KE9AnimationEEEeqERKS5_ @944
    _ZNKSt23_Rb_tree_const_iteratorISt4pairIKSsN2KE9AnimationEEEptEv @945
    _ZNKSt23_Rb_tree_const_iteratorISt4pairIKSsPN2KE4FontEEE13_M_const_castEv @946
    _ZNKSt23_Rb_tree_const_iteratorISt4pairIKSsPN2KE4FontEEEeqERKS6_ @947
    _ZNKSt23_Rb_tree_const_iteratorISt4pairIKSsPN2KE5MusicEEE13_M_const_castEv @948
    _ZNKSt23_Rb_tree_const_iteratorISt4pairIKSsPN2KE5MusicEEEeqERKS6_ @949
    _ZNKSt23_Rb_tree_const_iteratorISt4pairIKSsPN2KE5SoundEEE13_M_const_castEv @950
    _ZNKSt23_Rb_tree_const_iteratorISt4pairIKSsPN2KE5SoundEEEeqERKS6_ @951
    _ZNKSt23_Rb_tree_const_iteratorISt4pairIKSsPN2KE6CursorEEE13_M_const_castEv @952
    _ZNKSt23_Rb_tree_const_iteratorISt4pairIKSsPN2KE6CursorEEEeqERKS6_ @953
    _ZNKSt23_Rb_tree_const_iteratorISt4pairIKSsPN2KE7TextureEEE13_M_const_castEv @954
    _ZNKSt23_Rb_tree_const_iteratorISt4pairIKSsPN2KE7TextureEEEeqERKS6_ @955
    _ZNKSt23_Rb_tree_const_iteratorISt4pairIKSsPN2KE7TilesetEEE13_M_const_castEv @956
    _ZNKSt23_Rb_tree_const_iteratorISt4pairIKSsPN2KE7TilesetEEEeqERKS6_ @957
    _ZNKSt3mapISsN2KE9AnimationESt4lessISsESaISt4pairIKSsS1_EEE3endEv @958
    _ZNKSt3mapISsN2KE9AnimationESt4lessISsESaISt4pairIKSsS1_EEE4findERS5_ @959
    _ZNKSt3mapISsPN2KE4FontESt4lessISsESaISt4pairIKSsS2_EEE5countERS6_ @960
    _ZNKSt3mapISsPN2KE4FontESt4lessISsESaISt4pairIKSsS2_EEE8key_compEv @961
    _ZNKSt3mapISsPN2KE5MusicESt4lessISsESaISt4pairIKSsS2_EEE5countERS6_ @962
    _ZNKSt3mapISsPN2KE5MusicESt4lessISsESaISt4pairIKSsS2_EEE8key_compEv @963
    _ZNKSt3mapISsPN2KE5SoundESt4lessISsESaISt4pairIKSsS2_EEE5countERS6_ @964
    _ZNKSt3mapISsPN2KE5SoundESt4lessISsESaISt4pairIKSsS2_EEE8key_compEv @965
    _ZNKSt3mapISsPN2KE6CursorESt4lessISsESaISt4pairIKSsS2_EEE5countERS6_ @966
    _ZNKSt3mapISsPN2KE6CursorESt4lessISsESaISt4pairIKSsS2_EEE8key_compEv @967
    _ZNKSt3mapISsPN2KE7TextureESt4lessISsESaISt4pairIKSsS2_EEE5countERS6_ @968
    _ZNKSt3mapISsPN2KE7TextureESt4lessISsESaISt4pairIKSsS2_EEE8key_compEv @969
    _ZNKSt3mapISsPN2KE7TilesetESt4lessISsESaISt4pairIKSsS2_EEE5countERS6_ @970
    _ZNKSt3mapISsPN2KE7TilesetESt4lessISsESaISt4pairIKSsS2_EEE8key_compEv @971
    _ZNKSt4lessISsEclERKSsS2_ @972
    _ZNKSt4listIN2KE8InstanceINS0_6ObjectEEESaIS3_EE3endEv @973
    _ZNKSt4listIN2KE8InstanceINS0_6ObjectEEESaIS3_EE4sizeEv @974
    _ZNKSt4listIN2KE8InstanceINS0_6ObjectEEESaIS3_EE5beginEv @975
    _ZNKSt4listIN2KE8InstanceINS0_6ObjectEEESaIS3_EE5emptyEv @976
    _ZNKSt6vectorIN2KE4RectESaIS1_EE12_M_check_lenEjPKc @977
    _ZNKSt6vectorIN2KE4RectESaIS1_EE4sizeEv @978
    _ZNKSt6vectorIN2KE4RectESaIS1_EE8max_sizeEv @979
    _ZNKSt6vectorIN2KE4RectESaIS1_EEixEj @980
    _ZNKSt6vectorISsSaISsEE12_M_check_lenEjPKc @981
    _ZNKSt6vectorISsSaISsEE3endEv @982
    _ZNKSt6vectorISsSaISsEE4sizeEv @983
    _ZNKSt6vectorISsSaISsEE5beginEv @984
    _ZNKSt6vectorISsSaISsEE8capacityEv @985
    _ZNKSt6vectorISsSaISsEE8max_sizeEv @986
    _ZNKSt6vectorIjSaIjEE12_M_check_lenEjPKc @987
    _ZNKSt6vectorIjSaIjEE3endEv @988
    _ZNKSt6vectorIjSaIjEE4sizeEv @989
    _ZNKSt6vectorIjSaIjEE5beginEv @990
    _ZNKSt6vectorIjSaIjEE8capacityEv @991
    _ZNKSt6vectorIjSaIjEE8max_sizeEv @992
    _ZNKSt8_Rb_treeISsSt4pairIKSsN2KE9AnimationEESt10_Select1stIS4_ESt4lessISsESaIS4_EE14_M_lower_boundEPKSt13_Rb_tree_nodeIS4_ESE_RS1_ @993
    _ZNKSt8_Rb_treeISsSt4pairIKSsN2KE9AnimationEESt10_Select1stIS4_ESt4lessISsESaIS4_EE3endEv @994
    _ZNKSt8_Rb_treeISsSt4pairIKSsN2KE9AnimationEESt10_Select1stIS4_ESt4lessISsESaIS4_EE4findERS1_ @995
    _ZNKSt8_Rb_treeISsSt4pairIKSsN2KE9AnimationEESt10_Select1stIS4_ESt4lessISsESaIS4_EE6_M_endEv @996
    _ZNKSt8_Rb_treeISsSt4pairIKSsN2KE9AnimationEESt10_Select1stIS4_ESt4lessISsESaIS4_EE8_M_beginEv @997
    _ZNKSt8_Rb_treeISsSt4pairIKSsPN2KE4FontEESt10_Select1stIS5_ESt4lessISsESaIS5_EE14_M_lower_boundEPKSt13_Rb_tree_nodeIS5_ESF_RS1_ @998
    _ZNKSt8_Rb_treeISsSt4pairIKSsPN2KE4FontEESt10_Select1stIS5_ESt4lessISsESaIS5_EE3endEv @999
    _ZNKSt8_Rb_treeISsSt4pairIKSsPN2KE4FontEESt10_Select1stIS5_ESt4lessISsESaIS5_EE4findERS1_ @1000
    _ZNKSt8_Rb_treeISsSt4pairIKSsPN2KE4FontEESt10_Select1stIS5_ESt4lessISsESaIS5_EE4sizeEv @1001
    _ZNKSt8_Rb_treeISsSt4pairIKSsPN2KE4FontEESt10_Select1stIS5_ESt4lessISsESaIS5_EE6_M_endEv @1002
    _ZNKSt8_Rb_treeISsSt4pairIKSsPN2KE4FontEESt10_Select1stIS5_ESt4lessISsESaIS5_EE8_M_beginEv @1003
    _ZNKSt8_Rb_treeISsSt4pairIKSsPN2KE4FontEESt10_Select1stIS5_ESt4lessISsESaIS5_EE8key_compEv @1004
    _ZNKSt8_Rb_treeISsSt4pairIKSsPN2KE5MusicEESt10_Select1stIS5_ESt4lessISsESaIS5_EE14_M_lower_boundEPKSt13_Rb_tree_nodeIS5_ESF_RS1_ @1005
    _ZNKSt8_Rb_treeISsSt4pairIKSsPN2KE5MusicEESt10_Select1stIS5_ESt4lessISsESaIS5_EE3endEv @1006
    _ZNKSt8_Rb_treeISsSt4pairIKSsPN2KE5MusicEESt10_Select1stIS5_ESt4lessISsESaIS5_EE4findERS1_ @1007
    _ZNKSt8_Rb_treeISsSt4pairIKSsPN2KE5MusicEESt10_Select1stIS5_ESt4lessISsESaIS5_EE4sizeEv @1008
    _ZNKSt8_Rb_treeISsSt4pairIKSsPN2KE5MusicEESt10_Select1stIS5_ESt4lessISsESaIS5_EE6_M_endEv @1009
    _ZNKSt8_Rb_treeISsSt4pairIKSsPN2KE5MusicEESt10_Select1stIS5_ESt4lessISsESaIS5_EE8_M_beginEv @1010
    _ZNKSt8_Rb_treeISsSt4pairIKSsPN2KE5MusicEESt10_Select1stIS5_ESt4lessISsESaIS5_EE8key_compEv @1011
    _ZNKSt8_Rb_treeISsSt4pairIKSsPN2KE5SoundEESt10_Select1stIS5_ESt4lessISsESaIS5_EE14_M_lower_boundEPKSt13_Rb_tree_nodeIS5_ESF_RS1_ @1012
    _ZNKSt8_Rb_treeISsSt4pairIKSsPN2KE5SoundEESt10_Select1stIS5_ESt4lessISsESaIS5_EE3endEv @1013
    _ZNKSt8_Rb_treeISsSt4pairIKSsPN2KE5SoundEESt10_Select1stIS5_ESt4lessISsESaIS5_EE4findERS1_ @1014
    _ZNKSt8_Rb_treeISsSt4pairIKSsPN2KE5SoundEESt10_Select1stIS5_ESt4lessISsESaIS5_EE4sizeEv @1015
    _ZNKSt8_Rb_treeISsSt4pairIKSsPN2KE5SoundEESt10_Select1stIS5_ESt4lessISsESaIS5_EE6_M_endEv @1016
    _ZNKSt8_Rb_treeISsSt4pairIKSsPN2KE5SoundEESt10_Select1stIS5_ESt4lessISsESaIS5_EE8_M_beginEv @1017
    _ZNKSt8_Rb_treeISsSt4pairIKSsPN2KE5SoundEESt10_Select1stIS5_ESt4lessISsESaIS5_EE8key_compEv @1018
    _ZNKSt8_Rb_treeISsSt4pairIKSsPN2KE6CursorEESt10_Select1stIS5_ESt4lessISsESaIS5_EE14_M_lower_boundEPKSt13_Rb_tree_nodeIS5_ESF_RS1_ @1019
    _ZNKSt8_Rb_treeISsSt4pairIKSsPN2KE6CursorEESt10_Select1stIS5_ESt4lessISsESaIS5_EE3endEv @1020
    _ZNKSt8_Rb_treeISsSt4pairIKSsPN2KE6CursorEESt10_Select1stIS5_ESt4lessISsESaIS5_EE4findERS1_ @1021
    _ZNKSt8_Rb_treeISsSt4pairIKSsPN2KE6CursorEESt10_Select1stIS5_ESt4lessISsESaIS5_EE4sizeEv @1022
    _ZNKSt8_Rb_treeISsSt4pairIKSsPN2KE6CursorEESt10_Select1stIS5_ESt4lessISsESaIS5_EE6_M_endEv @1023
    _ZNKSt8_Rb_treeISsSt4pairIKSsPN2KE6CursorEESt10_Select1stIS5_ESt4lessISsESaIS5_EE8_M_beginEv @1024
    _ZNKSt8_Rb_treeISsSt4pairIKSsPN2KE6CursorEESt10_Select1stIS5_ESt4lessISsESaIS5_EE8key_compEv @1025
    _ZNKSt8_Rb_treeISsSt4pairIKSsPN2KE7TextureEESt10_Select1stIS5_ESt4lessISsESaIS5_EE14_M_lower_boundEPKSt13_Rb_tree_nodeIS5_ESF_RS1_ @1026
    _ZNKSt8_Rb_treeISsSt4pairIKSsPN2KE7TextureEESt10_Select1stIS5_ESt4lessISsESaIS5_EE3endEv @1027
    _ZNKSt8_Rb_treeISsSt4pairIKSsPN2KE7TextureEESt10_Select1stIS5_ESt4lessISsESaIS5_EE4findERS1_ @1028
    _ZNKSt8_Rb_treeISsSt4pairIKSsPN2KE7TextureEESt10_Select1stIS5_ESt4lessISsESaIS5_EE4sizeEv @1029
    _ZNKSt8_Rb_treeISsSt4pairIKSsPN2KE7TextureEESt10_Select1stIS5_ESt4lessISsESaIS5_EE6_M_endEv @1030
    _ZNKSt8_Rb_treeISsSt4pairIKSsPN2KE7TextureEESt10_Select1stIS5_ESt4lessISsESaIS5_EE8_M_beginEv @1031
    _ZNKSt8_Rb_treeISsSt4pairIKSsPN2KE7TextureEESt10_Select1stIS5_ESt4lessISsESaIS5_EE8key_compEv @1032
    _ZNKSt8_Rb_treeISsSt4pairIKSsPN2KE7TilesetEESt10_Select1stIS5_ESt4lessISsESaIS5_EE14_M_lower_boundEPKSt13_Rb_tree_nodeIS5_ESF_RS1_ @1033
    _ZNKSt8_Rb_treeISsSt4pairIKSsPN2KE7TilesetEESt10_Select1stIS5_ESt4lessISsESaIS5_EE3endEv @1034
    _ZNKSt8_Rb_treeISsSt4pairIKSsPN2KE7TilesetEESt10_Select1stIS5_ESt4lessISsESaIS5_EE4findERS1_ @1035
    _ZNKSt8_Rb_treeISsSt4pairIKSsPN2KE7TilesetEESt10_Select1stIS5_ESt4lessISsESaIS5_EE4sizeEv @1036
    _ZNKSt8_Rb_treeISsSt4pairIKSsPN2KE7TilesetEESt10_Select1stIS5_ESt4lessISsESaIS5_EE6_M_endEv @1037
    _ZNKSt8_Rb_treeISsSt4pairIKSsPN2KE7TilesetEESt10_Select1stIS5_ESt4lessISsESaIS5_EE8_M_beginEv @1038
    _ZNKSt8_Rb_treeISsSt4pairIKSsPN2KE7TilesetEESt10_Select1stIS5_ESt4lessISsESaIS5_EE8key_compEv @1039
    _ZNSaIN2KE4RectEEC2Ev @1040
    _ZNSaIN2KE4RectEED2Ev @1041
    _ZNSaIP13_SDL_JoystickEC1Ev @1042
    _ZNSaIP13_SDL_JoystickEC2ERKS1_ @1043
    _ZNSaIP13_SDL_JoystickED1Ev @1044
    _ZNSaIP13_SDL_JoystickED2Ev @1045
    _ZNSaISsEC2Ev @1046
    _ZNSaISsED2Ev @1047
    _ZNSaISt10_List_nodeIN2KE8InstanceINS0_6ObjectEEEEEC2Ev @1048
    _ZNSaISt10_List_nodeIN2KE8InstanceINS0_6ObjectEEEEED2Ev @1049
    _ZNSaISt13_Rb_tree_nodeISt4pairIKSsN2KE9AnimationEEEEC2Ev @1050
    _ZNSaISt13_Rb_tree_nodeISt4pairIKSsN2KE9AnimationEEEED2Ev @1051
    _ZNSaISt13_Rb_tree_nodeISt4pairIKSsPN2KE4FontEEEEC2Ev @1052
    _ZNSaISt13_Rb_tree_nodeISt4pairIKSsPN2KE4FontEEEED2Ev @1053
    _ZNSaISt13_Rb_tree_nodeISt4pairIKSsPN2KE5MusicEEEEC2Ev @1054
    _ZNSaISt13_Rb_tree_nodeISt4pairIKSsPN2KE5MusicEEEED2Ev @1055
    _ZNSaISt13_Rb_tree_nodeISt4pairIKSsPN2KE5SoundEEEEC2Ev @1056
    _ZNSaISt13_Rb_tree_nodeISt4pairIKSsPN2KE5SoundEEEED2Ev @1057
    _ZNSaISt13_Rb_tree_nodeISt4pairIKSsPN2KE6CursorEEEEC2Ev @1058
    _ZNSaISt13_Rb_tree_nodeISt4pairIKSsPN2KE6CursorEEEED2Ev @1059
    _ZNSaISt13_Rb_tree_nodeISt4pairIKSsPN2KE7TextureEEEEC2Ev @1060
    _ZNSaISt13_Rb_tree_nodeISt4pairIKSsPN2KE7TextureEEEED2Ev @1061
    _ZNSaISt13_Rb_tree_nodeISt4pairIKSsPN2KE7TilesetEEEEC2Ev @1062
    _ZNSaISt13_Rb_tree_nodeISt4pairIKSsPN2KE7TilesetEEEED2Ev @1063
    _ZNSaIjEC2ERKS_ @1064
    _ZNSaIjEC2Ev @1065
    _ZNSaIjED2Ev @1066
    _ZNSt10_Iter_baseIN9__gnu_cxx17__normal_iteratorIPKjSt6vectorIjSaIjEEEELb0EE7_S_baseES7_ @1067
    _ZNSt10_Iter_baseIN9__gnu_cxx17__normal_iteratorIPKjSt6vectorIjSaIjEEEELb1EE7_S_baseES7_ @1068
    _ZNSt10_Iter_baseIN9__gnu_cxx17__normal_iteratorIPjSt6vectorIjSaIjEEEELb1EE7_S_baseES6_ @1069
    _ZNSt10_Iter_baseIPKSsLb0EE7_S_baseES1_ @1070
    _ZNSt10_Iter_baseIPP13_SDL_JoystickLb0EE7_S_baseES2_ @1071
    _ZNSt10_Iter_baseIPSsLb0EE7_S_baseES0_ @1072
    _ZNSt10_Iter_baseIPjLb0EE7_S_baseES0_ @1073
    _ZNSt10_Iter_baseISt13move_iteratorIPjELb1EE7_S_baseES2_ @1074
    _ZNSt10_List_baseIN2KE8InstanceINS0_6ObjectEEESaIS3_EE10_List_implC1Ev @1075
    _ZNSt10_List_baseIN2KE8InstanceINS0_6ObjectEEESaIS3_EE10_List_implD1Ev @1076
    _ZNSt10_List_baseIN2KE8InstanceINS0_6ObjectEEESaIS3_EE11_M_get_nodeEv @1077
    _ZNSt10_List_baseIN2KE8InstanceINS0_6ObjectEEESaIS3_EE11_M_put_nodeEPSt10_List_nodeIS3_E @1078
    _ZNSt10_List_baseIN2KE8InstanceINS0_6ObjectEEESaIS3_EE21_M_get_Node_allocatorEv @1079
    _ZNSt10_List_baseIN2KE8InstanceINS0_6ObjectEEESaIS3_EE7_M_initEv @1080
    _ZNSt10_List_baseIN2KE8InstanceINS0_6ObjectEEESaIS3_EE8_M_clearEv @1081
    _ZNSt10_List_baseIN2KE8InstanceINS0_6ObjectEEESaIS3_EEC2Ev @1082
    _ZNSt10_List_baseIN2KE8InstanceINS0_6ObjectEEESaIS3_EED2Ev @1083
    _ZNSt10_List_nodeIN2KE8InstanceINS0_6ObjectEEEEC1IIS3_EEEDpOT_ @1084
    _ZNSt10_List_nodeIN2KE8InstanceINS0_6ObjectEEEED1Ev @1085
    _ZNSt11__alloc_neqISaISt10_List_nodeIN2KE8InstanceINS1_6ObjectEEEEELb1EE8_S_do_itERKS6_S9_ @1086
    _ZNSt11__copy_moveILb0ELb0ESt26random_access_iterator_tagE8__copy_mIPKSsPSsEET0_T_S7_S6_ @1087
    _ZNSt11__copy_moveILb0ELb1ESt26random_access_iterator_tagE8__copy_mIjEEPT_PKS3_S6_S4_ @1088
    _ZNSt11__copy_moveILb1ELb1ESt26random_access_iterator_tagE8__copy_mIjEEPT_PKS3_S6_S4_ @1089
    _ZNSt11char_traitsIcE7compareEPKcS2_j @1090
    _ZNSt12_Destroy_auxILb0EE9__destroyIPSsEEvT_S3_ @1091
    _ZNSt12_Destroy_auxILb1EE9__destroyIN9__gnu_cxx17__normal_iteratorIPjSt6vectorIjSaIjEEEEEEvT_S9_ @1092
    _ZNSt12_Destroy_auxILb1EE9__destroyIPN2KE4RectEEEvT_S5_ @1093
    _ZNSt12_Destroy_auxILb1EE9__destroyIPP13_SDL_JoystickEEvT_S5_ @1094
    _ZNSt12_Destroy_auxILb1EE9__destroyIPjEEvT_S3_ @1095
    _ZNSt12_Vector_baseIN2KE4RectESaIS1_EE11_M_allocateEj @1096
    _ZNSt12_Vector_baseIN2KE4RectESaIS1_EE12_Vector_implC1Ev @1097
    _ZNSt12_Vector_baseIN2KE4RectESaIS1_EE12_Vector_implD1Ev @1098
    _ZNSt12_Vector_baseIN2KE4RectESaIS1_EE13_M_deallocateEPS1_j @1099
    _ZNSt12_Vector_baseIN2KE4RectESaIS1_EE19_M_get_Tp_allocatorEv @1100
    _ZNSt12_Vector_baseIN2KE4RectESaIS1_EEC2Ev @1101
    _ZNSt12_Vector_baseIN2KE4RectESaIS1_EED2Ev @1102
    _ZNSt12_Vector_baseIP13_SDL_JoystickSaIS1_EE11_M_allocateEj @1103
    _ZNSt12_Vector_baseIP13_SDL_JoystickSaIS1_EE12_Vector_implC1ERKS2_ @1104
    _ZNSt12_Vector_baseIP13_SDL_JoystickSaIS1_EE12_Vector_implD1Ev @1105
    _ZNSt12_Vector_baseIP13_SDL_JoystickSaIS1_EE13_M_deallocateEPS1_j @1106
    _ZNSt12_Vector_baseIP13_SDL_JoystickSaIS1_EE17_M_create_storageEj @1107
    _ZNSt12_Vector_baseIP13_SDL_JoystickSaIS1_EE19_M_get_Tp_allocatorEv @1108
    _ZNSt12_Vector_baseIP13_SDL_JoystickSaIS1_EEC2EjRKS2_ @1109
    _ZNSt12_Vector_baseIP13_SDL_JoystickSaIS1_EED2Ev @1110
    _ZNSt12_Vector_baseISsSaISsEE11_M_allocateEj @1111
    _ZNSt12_Vector_baseISsSaISsEE12_Vector_implC1Ev @1112
    _ZNSt12_Vector_baseISsSaISsEE12_Vector_implD1Ev @1113
    _ZNSt12_Vector_baseISsSaISsEE13_M_deallocateEPSsj @1114
    _ZNSt12_Vector_baseISsSaISsEE19_M_get_Tp_allocatorEv @1115
    _ZNSt12_Vector_baseISsSaISsEEC2Ev @1116
    _ZNSt12_Vector_baseISsSaISsEED2Ev @1117
    _ZNSt12_Vector_baseIjSaIjEE11_M_allocateEj @1118
    _ZNSt12_Vector_baseIjSaIjEE12_Vector_impl12_M_swap_dataERS2_ @1119
    _ZNSt12_Vector_baseIjSaIjEE12_Vector_implC1EOS0_ @1120
    _ZNSt12_Vector_baseIjSaIjEE12_Vector_implC1Ev @1121
    _ZNSt12_Vector_baseIjSaIjEE12_Vector_implD1Ev @1122
    _ZNSt12_Vector_baseIjSaIjEE13_M_deallocateEPjj @1123
    _ZNSt12_Vector_baseIjSaIjEE19_M_get_Tp_allocatorEv @1124
    _ZNSt12_Vector_baseIjSaIjEEC2EOS1_ @1125
    _ZNSt12_Vector_baseIjSaIjEEC2Ev @1126
    _ZNSt12_Vector_baseIjSaIjEED2Ev @1127
    _ZNSt13_Rb_tree_nodeISt4pairIKSsN2KE9AnimationEEEC1IIS0_ISsS3_EEEEDpOT_ @1128
    _ZNSt13_Rb_tree_nodeISt4pairIKSsN2KE9AnimationEEED1Ev @1129
    _ZNSt13_Rb_tree_nodeISt4pairIKSsPN2KE4FontEEEC1IIS5_EEEDpOT_ @1130
    _ZNSt13_Rb_tree_nodeISt4pairIKSsPN2KE4FontEEED1Ev @1131
    _ZNSt13_Rb_tree_nodeISt4pairIKSsPN2KE5MusicEEEC1IIS5_EEEDpOT_ @1132
    _ZNSt13_Rb_tree_nodeISt4pairIKSsPN2KE5MusicEEED1Ev @1133
    _ZNSt13_Rb_tree_nodeISt4pairIKSsPN2KE5SoundEEEC1IIS5_EEEDpOT_ @1134
    _ZNSt13_Rb_tree_nodeISt4pairIKSsPN2KE5SoundEEED1Ev @1135
    _ZNSt13_Rb_tree_nodeISt4pairIKSsPN2KE6CursorEEEC1IIS5_EEEDpOT_ @1136
    _ZNSt13_Rb_tree_nodeISt4pairIKSsPN2KE6CursorEEED1Ev @1137
    _ZNSt13_Rb_tree_nodeISt4pairIKSsPN2KE7TextureEEEC1IIS5_EEEDpOT_ @1138
    _ZNSt13_Rb_tree_nodeISt4pairIKSsPN2KE7TextureEEED1Ev @1139
    _ZNSt13_Rb_tree_nodeISt4pairIKSsPN2KE7TilesetEEEC1IIS5_EEEDpOT_ @1140
    _ZNSt13_Rb_tree_nodeISt4pairIKSsPN2KE7TilesetEEED1Ev @1141
    _ZNSt13move_iteratorIPN2KE4RectEEC1ES2_ @1142
    _ZNSt13move_iteratorIPN2KE4RectEEppEv @1143
    _ZNSt13move_iteratorIPSsEC1ES0_ @1144
    _ZNSt13move_iteratorIPSsEppEv @1145
    _ZNSt13move_iteratorIPjEC1ES0_ @1146
    _ZNSt14_List_iteratorIN2KE8InstanceINS0_6ObjectEEEEC1EPNSt8__detail15_List_node_baseE @1147
    _ZNSt14_List_iteratorIN2KE8InstanceINS0_6ObjectEEEEmmEv @1148
    _ZNSt14_List_iteratorIN2KE8InstanceINS0_6ObjectEEEEppEv @1149
    _ZNSt16allocator_traitsISaIN2KE4RectEEE10_S_destroyIS1_EENSt9enable_ifIXsrNS3_16__destroy_helperIT_EE5valueEvE4typeERS2_PS7_ @1150
    _ZNSt16allocator_traitsISaIN2KE4RectEEE11_S_max_sizeIKS2_EENSt9enable_ifIXsrNS3_16__maxsize_helperIT_EE5valueEjE4typeERS8_ @1151
    _ZNSt16allocator_traitsISaIN2KE4RectEEE12_S_constructIS1_IRKS1_EEENSt9enable_ifIXsrNS3_18__construct_helperIT_IDpT0_EEE5valueEvE4typeERS2_PS9_DpOSA_ @1152
    _ZNSt16allocator_traitsISaIN2KE4RectEEE12_S_constructIS1_IS1_EEENSt9enable_ifIXsrNS3_18__construct_helperIT_IDpT0_EEE5valueEvE4typeERS2_PS7_DpOS8_ @1153
    _ZNSt16allocator_traitsISaIN2KE4RectEEE7destroyIS1_EEvRS2_PT_ @1154
    _ZNSt16allocator_traitsISaIN2KE4RectEEE8max_sizeERKS2_ @1155
    _ZNSt16allocator_traitsISaIN2KE4RectEEE9constructIS1_IRKS1_EEEvRS2_PT_DpOT0_ @1156
    _ZNSt16allocator_traitsISaIN2KE4RectEEE9constructIS1_IS1_EEEvRS2_PT_DpOT0_ @1157
    _ZNSt16allocator_traitsISaISsEE10_S_destroyISsEENSt9enable_ifIXsrNS1_16__destroy_helperIT_EE5valueEvE4typeERS0_PS5_ @1158
    _ZNSt16allocator_traitsISaISsEE11_S_max_sizeIKS0_EENSt9enable_ifIXsrNS1_16__maxsize_helperIT_EE5valueEjE4typeERS6_ @1159
    _ZNSt16allocator_traitsISaISsEE12_S_constructISsIRKSsEEENSt9enable_ifIXsrNS1_18__construct_helperIT_IDpT0_EEE5valueEvE4typeERS0_PS7_DpOS8_ @1160
    _ZNSt16allocator_traitsISaISsEE7destroyISsEEvRS0_PT_ @1161
    _ZNSt16allocator_traitsISaISsEE8max_sizeERKS0_ @1162
    _ZNSt16allocator_traitsISaISsEE9constructISsIRKSsEEEvRS0_PT_DpOT0_ @1163
    _ZNSt16allocator_traitsISaIjEE10_S_destroyIjEENSt9enable_ifIXsrNS1_16__destroy_helperIT_EE5valueEvE4typeERS0_PS5_ @1164
    _ZNSt16allocator_traitsISaIjEE11_S_max_sizeIKS0_EENSt9enable_ifIXsrNS1_16__maxsize_helperIT_EE5valueEjE4typeERS6_ @1165
    _ZNSt16allocator_traitsISaIjEE12_S_constructIjIjEEENSt9enable_ifIXsrNS1_18__construct_helperIT_IDpT0_EEE5valueEvE4typeERS0_PS5_DpOS6_ @1166
    _ZNSt16allocator_traitsISaIjEE7destroyIjEEvRS0_PT_ @1167
    _ZNSt16allocator_traitsISaIjEE8max_sizeERKS0_ @1168
    _ZNSt16allocator_traitsISaIjEE9constructIjIjEEEvRS0_PT_DpOT0_ @1169
    _ZNSt17_Rb_tree_iteratorISt4pairIKSsN2KE9AnimationEEEC1EPSt13_Rb_tree_nodeIS4_E @1170
    _ZNSt17_Rb_tree_iteratorISt4pairIKSsN2KE9AnimationEEEmmEv @1171
    _ZNSt17_Rb_tree_iteratorISt4pairIKSsPN2KE4FontEEEC1EPSt13_Rb_tree_nodeIS5_E @1172
    _ZNSt17_Rb_tree_iteratorISt4pairIKSsPN2KE4FontEEEmmEv @1173
    _ZNSt17_Rb_tree_iteratorISt4pairIKSsPN2KE4FontEEEppEv @1174
    _ZNSt17_Rb_tree_iteratorISt4pairIKSsPN2KE5MusicEEEC1EPSt13_Rb_tree_nodeIS5_E @1175
    _ZNSt17_Rb_tree_iteratorISt4pairIKSsPN2KE5MusicEEEmmEv @1176
    _ZNSt17_Rb_tree_iteratorISt4pairIKSsPN2KE5MusicEEEppEv @1177
    _ZNSt17_Rb_tree_iteratorISt4pairIKSsPN2KE5SoundEEEC1EPSt13_Rb_tree_nodeIS5_E @1178
    _ZNSt17_Rb_tree_iteratorISt4pairIKSsPN2KE5SoundEEEmmEv @1179
    _ZNSt17_Rb_tree_iteratorISt4pairIKSsPN2KE5SoundEEEppEv @1180
    _ZNSt17_Rb_tree_iteratorISt4pairIKSsPN2KE6CursorEEEC1EPSt13_Rb_tree_nodeIS5_E @1181
    _ZNSt17_Rb_tree_iteratorISt4pairIKSsPN2KE6CursorEEEmmEv @1182
    _ZNSt17_Rb_tree_iteratorISt4pairIKSsPN2KE6CursorEEEppEv @1183
    _ZNSt17_Rb_tree_iteratorISt4pairIKSsPN2KE7TextureEEEC1EPSt13_Rb_tree_nodeIS5_E @1184
    _ZNSt17_Rb_tree_iteratorISt4pairIKSsPN2KE7TextureEEEmmEv @1185
    _ZNSt17_Rb_tree_iteratorISt4pairIKSsPN2KE7TextureEEEppEv @1186
    _ZNSt17_Rb_tree_iteratorISt4pairIKSsPN2KE7TilesetEEEC1EPSt13_Rb_tree_nodeIS5_E @1187
    _ZNSt17_Rb_tree_iteratorISt4pairIKSsPN2KE7TilesetEEEmmEv @1188
    _ZNSt17_Rb_tree_iteratorISt4pairIKSsPN2KE7TilesetEEEppEv @1189
    _ZNSt20_List_const_iteratorIN2KE8InstanceINS0_6ObjectEEEEC1EPKNSt8__detail15_List_node_baseE @1190
    _ZNSt20_List_const_iteratorIN2KE8InstanceINS0_6ObjectEEEEppEv @1191
    _ZNSt20__uninitialized_copyILb0EE13__uninit_copyIPKSsPSsEET0_T_S6_S5_ @1192
    _ZNSt20__uninitialized_copyILb0EE13__uninit_copyISt13move_iteratorIPN2KE4RectEES5_EET0_T_S8_S7_ @1193
    _ZNSt20__uninitialized_copyILb0EE13__uninit_copyISt13move_iteratorIPSsES3_EET0_T_S6_S5_ @1194
    _ZNSt20__uninitialized_copyILb1EE13__uninit_copyIN9__gnu_cxx17__normal_iteratorIPKjSt6vectorIjSaIjEEEEPjEET0_T_SC_SB_ @1195
    _ZNSt20__uninitialized_copyILb1EE13__uninit_copyIPjS2_EET0_T_S4_S3_ @1196
    _ZNSt20__uninitialized_copyILb1EE13__uninit_copyISt13move_iteratorIPjES3_EET0_T_S6_S5_ @1197
    _ZNSt22__uninitialized_fill_nILb1EE15__uninit_fill_nIPP13_SDL_JoystickjS3_EEvT_T0_RKT1_ @1198
    _ZNSt23_Rb_tree_const_iteratorISt4pairIKSsN2KE9AnimationEEEC1EPKSt13_Rb_tree_nodeIS4_E @1199
    _ZNSt23_Rb_tree_const_iteratorISt4pairIKSsPN2KE4FontEEEC1EPKSt13_Rb_tree_nodeIS5_E @1200
    _ZNSt23_Rb_tree_const_iteratorISt4pairIKSsPN2KE4FontEEEC1ERKSt17_Rb_tree_iteratorIS5_E @1201
    _ZNSt23_Rb_tree_const_iteratorISt4pairIKSsPN2KE4FontEEEmmEv @1202
    _ZNSt23_Rb_tree_const_iteratorISt4pairIKSsPN2KE4FontEEEppEv @1203
    _ZNSt23_Rb_tree_const_iteratorISt4pairIKSsPN2KE5MusicEEEC1EPKSt13_Rb_tree_nodeIS5_E @1204
    _ZNSt23_Rb_tree_const_iteratorISt4pairIKSsPN2KE5MusicEEEC1ERKSt17_Rb_tree_iteratorIS5_E @1205
    _ZNSt23_Rb_tree_const_iteratorISt4pairIKSsPN2KE5MusicEEEmmEv @1206
    _ZNSt23_Rb_tree_const_iteratorISt4pairIKSsPN2KE5MusicEEEppEv @1207
    _ZNSt23_Rb_tree_const_iteratorISt4pairIKSsPN2KE5SoundEEEC1EPKSt13_Rb_tree_nodeIS5_E @1208
    _ZNSt23_Rb_tree_const_iteratorISt4pairIKSsPN2KE5SoundEEEC1ERKSt17_Rb_tree_iteratorIS5_E @1209
    _ZNSt23_Rb_tree_const_iteratorISt4pairIKSsPN2KE5SoundEEEmmEv @1210
    _ZNSt23_Rb_tree_const_iteratorISt4pairIKSsPN2KE5SoundEEEppEv @1211
    _ZNSt23_Rb_tree_const_iteratorISt4pairIKSsPN2KE6CursorEEEC1EPKSt13_Rb_tree_nodeIS5_E @1212
    _ZNSt23_Rb_tree_const_iteratorISt4pairIKSsPN2KE6CursorEEEC1ERKSt17_Rb_tree_iteratorIS5_E @1213
    _ZNSt23_Rb_tree_const_iteratorISt4pairIKSsPN2KE6CursorEEEmmEv @1214
    _ZNSt23_Rb_tree_const_iteratorISt4pairIKSsPN2KE6CursorEEEppEv @1215
    _ZNSt23_Rb_tree_const_iteratorISt4pairIKSsPN2KE7TextureEEEC1EPKSt13_Rb_tree_nodeIS5_E @1216
    _ZNSt23_Rb_tree_const_iteratorISt4pairIKSsPN2KE7TextureEEEC1ERKSt17_Rb_tree_iteratorIS5_E @1217
    _ZNSt23_Rb_tree_const_iteratorISt4pairIKSsPN2KE7TextureEEEmmEv @1218
    _ZNSt23_Rb_tree_const_iteratorISt4pairIKSsPN2KE7TextureEEEppEv @1219
    _ZNSt23_Rb_tree_const_iteratorISt4pairIKSsPN2KE7TilesetEEEC1EPKSt13_Rb_tree_nodeIS5_E @1220
    _ZNSt23_Rb_tree_const_iteratorISt4pairIKSsPN2KE7TilesetEEEC1ERKSt17_Rb_tree_iteratorIS5_E @1221
    _ZNSt23_Rb_tree_const_iteratorISt4pairIKSsPN2KE7TilesetEEEmmEv @1222
    _ZNSt23_Rb_tree_const_iteratorISt4pairIKSsPN2KE7TilesetEEEppEv @1223
    _ZNSt3mapISsN2KE9AnimationESt4lessISsESaISt4pairIKSsS1_EEE6insertIS4_ISsS1_EvEES4_ISt17_Rb_tree_iteratorIS6_EbEOT_ @1224
    _ZNSt3mapISsN2KE9AnimationESt4lessISsESaISt4pairIKSsS1_EEEC1Ev @1225
    _ZNSt3mapISsN2KE9AnimationESt4lessISsESaISt4pairIKSsS1_EEED1Ev @1226
    _ZNSt3mapISsPN2KE4FontESt4lessISsESaISt4pairIKSsS2_EEE11lower_boundERS6_ @1227
    _ZNSt3mapISsPN2KE4FontESt4lessISsESaISt4pairIKSsS2_EEE3endEv @1228
    _ZNSt3mapISsPN2KE4FontESt4lessISsESaISt4pairIKSsS2_EEE5beginEv @1229
    _ZNSt3mapISsPN2KE4FontESt4lessISsESaISt4pairIKSsS2_EEE5clearEv @1230
    _ZNSt3mapISsPN2KE4FontESt4lessISsESaISt4pairIKSsS2_EEE6insertIS7_vEESt17_Rb_tree_iteratorIS7_ESt23_Rb_tree_const_iteratorIS7_EOT_ @1231
    _ZNSt3mapISsPN2KE4FontESt4lessISsESaISt4pairIKSsS2_EEEC1Ev @1232
    _ZNSt3mapISsPN2KE4FontESt4lessISsESaISt4pairIKSsS2_EEED1Ev @1233
    _ZNSt3mapISsPN2KE4FontESt4lessISsESaISt4pairIKSsS2_EEEixERS6_ @1234
    _ZNSt3mapISsPN2KE5MusicESt4lessISsESaISt4pairIKSsS2_EEE11lower_boundERS6_ @1235
    _ZNSt3mapISsPN2KE5MusicESt4lessISsESaISt4pairIKSsS2_EEE3endEv @1236
    _ZNSt3mapISsPN2KE5MusicESt4lessISsESaISt4pairIKSsS2_EEE5beginEv @1237
    _ZNSt3mapISsPN2KE5MusicESt4lessISsESaISt4pairIKSsS2_EEE5clearEv @1238
    _ZNSt3mapISsPN2KE5MusicESt4lessISsESaISt4pairIKSsS2_EEE6insertIS7_vEESt17_Rb_tree_iteratorIS7_ESt23_Rb_tree_const_iteratorIS7_EOT_ @1239
    _ZNSt3mapISsPN2KE5MusicESt4lessISsESaISt4pairIKSsS2_EEEC1Ev @1240
    _ZNSt3mapISsPN2KE5MusicESt4lessISsESaISt4pairIKSsS2_EEED1Ev @1241
    _ZNSt3mapISsPN2KE5MusicESt4lessISsESaISt4pairIKSsS2_EEEixERS6_ @1242
    _ZNSt3mapISsPN2KE5SoundESt4lessISsESaISt4pairIKSsS2_EEE11lower_boundERS6_ @1243
    _ZNSt3mapISsPN2KE5SoundESt4lessISsESaISt4pairIKSsS2_EEE3endEv @1244
    _ZNSt3mapISsPN2KE5SoundESt4lessISsESaISt4pairIKSsS2_EEE5beginEv @1245
    _ZNSt3mapISsPN2KE5SoundESt4lessISsESaISt4pairIKSsS2_EEE5clearEv @1246
    _ZNSt3mapISsPN2KE5SoundESt4lessISsESaISt4pairIKSsS2_EEE6insertIS7_vEESt17_Rb_tree_iteratorIS7_ESt23_Rb_tree_const_iteratorIS7_EOT_ @1247
    _ZNSt3mapISsPN2KE5SoundESt4lessISsESaISt4pairIKSsS2_EEEC1Ev @1248
    _ZNSt3mapISsPN2KE5SoundESt4lessISsESaISt4pairIKSsS2_EEED1Ev @1249
    _ZNSt3mapISsPN2KE5SoundESt4lessISsESaISt4pairIKSsS2_EEEixERS6_ @1250
    _ZNSt3mapISsPN2KE6CursorESt4lessISsESaISt4pairIKSsS2_EEE11lower_boundERS6_ @1251
    _ZNSt3mapISsPN2KE6CursorESt4lessISsESaISt4pairIKSsS2_EEE3endEv @1252
    _ZNSt3mapISsPN2KE6CursorESt4lessISsESaISt4pairIKSsS2_EEE5beginEv @1253
    _ZNSt3mapISsPN2KE6CursorESt4lessISsESaISt4pairIKSsS2_EEE5clearEv @1254
    _ZNSt3mapISsPN2KE6CursorESt4lessISsESaISt4pairIKSsS2_EEE6insertIS7_vEESt17_Rb_tree_iteratorIS7_ESt23_Rb_tree_const_iteratorIS7_EOT_ @1255
    _ZNSt3mapISsPN2KE6CursorESt4lessISsESaISt4pairIKSsS2_EEEC1Ev @1256
    _ZNSt3mapISsPN2KE6CursorESt4lessISsESaISt4pairIKSsS2_EEED1Ev @1257
    _ZNSt3mapISsPN2KE6CursorESt4lessISsESaISt4pairIKSsS2_EEEixERS6_ @1258
    _ZNSt3mapISsPN2KE7TextureESt4lessISsESaISt4pairIKSsS2_EEE11lower_boundERS6_ @1259
    _ZNSt3mapISsPN2KE7TextureESt4lessISsESaISt4pairIKSsS2_EEE3endEv @1260
    _ZNSt3mapISsPN2KE7TextureESt4lessISsESaISt4pairIKSsS2_EEE5beginEv @1261
    _ZNSt3mapISsPN2KE7TextureESt4lessISsESaISt4pairIKSsS2_EEE5clearEv @1262
    _ZNSt3mapISsPN2KE7TextureESt4lessISsESaISt4pairIKSsS2_EEE6insertIS7_vEESt17_Rb_tree_iteratorIS7_ESt23_Rb_tree_const_iteratorIS7_EOT_ @1263
    _ZNSt3mapISsPN2KE7TextureESt4lessISsESaISt4pairIKSsS2_EEEC1Ev @1264
    _ZNSt3mapISsPN2KE7TextureESt4lessISsESaISt4pairIKSsS2_EEED1Ev @1265
    _ZNSt3mapISsPN2KE7TextureESt4lessISsESaISt4pairIKSsS2_EEEixERS6_ @1266
    _ZNSt3mapISsPN2KE7TilesetESt4lessISsESaISt4pairIKSsS2_EEE11lower_boundERS6_ @1267
    _ZNSt3mapISsPN2KE7TilesetESt4lessISsESaISt4pairIKSsS2_EEE3endEv @1268
    _ZNSt3mapISsPN2KE7TilesetESt4lessISsESaISt4pairIKSsS2_EEE5beginEv @1269
    _ZNSt3mapISsPN2KE7TilesetESt4lessISsESaISt4pairIKSsS2_EEE5clearEv @1270
    _ZNSt3mapISsPN2KE7TilesetESt4lessISsESaISt4pairIKSsS2_EEE6insertIS7_vEESt17_Rb_tree_iteratorIS7_ESt23_Rb_tree_const_iteratorIS7_EOT_ @1271
    _ZNSt3mapISsPN2KE7TilesetESt4lessISsESaISt4pairIKSsS2_EEEC1Ev @1272
    _ZNSt3mapISsPN2KE7TilesetESt4lessISsESaISt4pairIKSsS2_EEED1Ev @1273
    _ZNSt3mapISsPN2KE7TilesetESt4lessISsESaISt4pairIKSsS2_EEEixERS6_ @1274
    _ZNSt4listIN2KE8InstanceINS0_6ObjectEEESaIS3_EE11_M_transferESt14_List_iteratorIS3_ES7_S7_ @1275
    _ZNSt4listIN2KE8InstanceINS0_6ObjectEEESaIS3_EE14_M_create_nodeIIS3_EEEPSt10_List_nodeIS3_EDpOT_ @1276
    _ZNSt4listIN2KE8InstanceINS0_6ObjectEEESaIS3_EE25_M_check_equal_allocatorsERS5_ @1277
    _ZNSt4listIN2KE8InstanceINS0_6ObjectEEESaIS3_EE3endEv @1278
    _ZNSt4listIN2KE8InstanceINS0_6ObjectEEESaIS3_EE4backEv @1279
    _ZNSt4listIN2KE8InstanceINS0_6ObjectEEESaIS3_EE5beginEv @1280
    _ZNSt4listIN2KE8InstanceINS0_6ObjectEEESaIS3_EE5clearEv @1281
    _ZNSt4listIN2KE8InstanceINS0_6ObjectEEESaIS3_EE5eraseESt14_List_iteratorIS3_E @1282
    _ZNSt4listIN2KE8InstanceINS0_6ObjectEEESaIS3_EE6spliceESt14_List_iteratorIS3_EOS5_ @1283
    _ZNSt4listIN2KE8InstanceINS0_6ObjectEEESaIS3_EE6spliceESt14_List_iteratorIS3_ERS5_ @1284
    _ZNSt4listIN2KE8InstanceINS0_6ObjectEEESaIS3_EE8_M_eraseESt14_List_iteratorIS3_E @1285
    _ZNSt4listIN2KE8InstanceINS0_6ObjectEEESaIS3_EE9_M_insertIIS3_EEEvSt14_List_iteratorIS3_EDpOT_ @1286
    _ZNSt4listIN2KE8InstanceINS0_6ObjectEEESaIS3_EE9push_backEOS3_ @1287
    _ZNSt4listIN2KE8InstanceINS0_6ObjectEEESaIS3_EEC1Ev @1288
    _ZNSt4listIN2KE8InstanceINS0_6ObjectEEESaIS3_EED1Ev @1289
    _ZNSt4pairIKSsN2KE9AnimationEEC1ISsS2_vEEOS_IT_T0_E @1290
    _ZNSt4pairIKSsN2KE9AnimationEED1Ev @1291
    _ZNSt4pairIKSsPN2KE4FontEEC1EOS4_ @1292
    _ZNSt4pairIKSsPN2KE4FontEEC1IS3_vEERS0_OT_ @1293
    _ZNSt4pairIKSsPN2KE4FontEED1Ev @1294
    _ZNSt4pairIKSsPN2KE5MusicEEC1EOS4_ @1295
    _ZNSt4pairIKSsPN2KE5MusicEEC1IS3_vEERS0_OT_ @1296
    _ZNSt4pairIKSsPN2KE5MusicEED1Ev @1297
    _ZNSt4pairIKSsPN2KE5SoundEEC1EOS4_ @1298
    _ZNSt4pairIKSsPN2KE5SoundEEC1IS3_vEERS0_OT_ @1299
    _ZNSt4pairIKSsPN2KE5SoundEED1Ev @1300
    _ZNSt4pairIKSsPN2KE6CursorEEC1EOS4_ @1301
    _ZNSt4pairIKSsPN2KE6CursorEEC1IS3_vEERS0_OT_ @1302
    _ZNSt4pairIKSsPN2KE6CursorEED1Ev @1303
    _ZNSt4pairIKSsPN2KE7TextureEEC1EOS4_ @1304
    _ZNSt4pairIKSsPN2KE7TextureEEC1IS3_vEERS0_OT_ @1305
    _ZNSt4pairIKSsPN2KE7TextureEED1Ev @1306
    _ZNSt4pairIKSsPN2KE7TilesetEEC1EOS4_ @1307
    _ZNSt4pairIKSsPN2KE7TilesetEEC1IS3_vEERS0_OT_ @1308
    _ZNSt4pairIKSsPN2KE7TilesetEED1Ev @1309
    _ZNSt4pairISsN2KE9AnimationEEC1IPKcS1_vEEOT_OT0_ @1310
    _ZNSt4pairISsN2KE9AnimationEEC1IRA5_KcS1_vEEOT_OT0_ @1311
    _ZNSt4pairISsN2KE9AnimationEED1Ev @1312
    _ZNSt4pairISt17_Rb_tree_iteratorIS_IKSsN2KE9AnimationEEEbEC1IRS5_bvEEOT_OT0_ @1313
    _ZNSt4pairISt17_Rb_tree_iteratorIS_IKSsN2KE9AnimationEEEbEC1IS5_bvEEOT_OT0_ @1314
    _ZNSt4pairISt17_Rb_tree_iteratorIS_IKSsPN2KE4FontEEEbEC1IRS6_bvEEOT_OT0_ @1315
    _ZNSt4pairISt17_Rb_tree_iteratorIS_IKSsPN2KE4FontEEEbEC1IS6_bvEEOT_OT0_ @1316
    _ZNSt4pairISt17_Rb_tree_iteratorIS_IKSsPN2KE5MusicEEEbEC1IRS6_bvEEOT_OT0_ @1317
    _ZNSt4pairISt17_Rb_tree_iteratorIS_IKSsPN2KE5MusicEEEbEC1IS6_bvEEOT_OT0_ @1318
    _ZNSt4pairISt17_Rb_tree_iteratorIS_IKSsPN2KE5SoundEEEbEC1IRS6_bvEEOT_OT0_ @1319
    _ZNSt4pairISt17_Rb_tree_iteratorIS_IKSsPN2KE5SoundEEEbEC1IS6_bvEEOT_OT0_ @1320
    _ZNSt4pairISt17_Rb_tree_iteratorIS_IKSsPN2KE6CursorEEEbEC1IRS6_bvEEOT_OT0_ @1321
    _ZNSt4pairISt17_Rb_tree_iteratorIS_IKSsPN2KE6CursorEEEbEC1IS6_bvEEOT_OT0_ @1322
    _ZNSt4pairISt17_Rb_tree_iteratorIS_IKSsPN2KE7TextureEEEbEC1IRS6_bvEEOT_OT0_ @1323
    _ZNSt4pairISt17_Rb_tree_iteratorIS_IKSsPN2KE7TextureEEEbEC1IS6_bvEEOT_OT0_ @1324
    _ZNSt4pairISt17_Rb_tree_iteratorIS_IKSsPN2KE7TilesetEEEbEC1IRS6_bvEEOT_OT0_ @1325
    _ZNSt4pairISt17_Rb_tree_iteratorIS_IKSsPN2KE7TilesetEEEbEC1IS6_bvEEOT_OT0_ @1326
    _ZNSt6vectorIN2KE4RectESaIS1_EE12emplace_backIIS1_EEEvDpOT_ @1327
    _ZNSt6vectorIN2KE4RectESaIS1_EE19_M_emplace_back_auxIIRKS1_EEEvDpOT_ @1328
    _ZNSt6vectorIN2KE4RectESaIS1_EE19_M_emplace_back_auxIIS1_EEEvDpOT_ @1329
    _ZNSt6vectorIN2KE4RectESaIS1_EE9push_backEOS1_ @1330
    _ZNSt6vectorIN2KE4RectESaIS1_EE9push_backERKS1_ @1331
    _ZNSt6vectorIN2KE4RectESaIS1_EEC1Ev @1332
    _ZNSt6vectorIN2KE4RectESaIS1_EED1Ev @1333
    _ZNSt6vectorIP13_SDL_JoystickSaIS1_EE18_M_fill_initializeEjRKS1_ @1334
    _ZNSt6vectorIP13_SDL_JoystickSaIS1_EEC1EjRKS1_RKS2_ @1335
    _ZNSt6vectorIP13_SDL_JoystickSaIS1_EED1Ev @1336
    _ZNSt6vectorIP13_SDL_JoystickSaIS1_EEixEj @1337
    _ZNSt6vectorISsSaISsEE13_M_assign_auxIPKSsEEvT_S5_St20forward_iterator_tag @1338
    _ZNSt6vectorISsSaISsEE15_M_erase_at_endEPSs @1339
    _ZNSt6vectorISsSaISsEE18_M_assign_dispatchIPKSsEEvT_S5_St12__false_type @1340
    _ZNSt6vectorISsSaISsEE19_M_emplace_back_auxIIRKSsEEEvDpOT_ @1341
    _ZNSt6vectorISsSaISsEE20_M_allocate_and_copyIPKSsEEPSsjT_S6_ @1342
    _ZNSt6vectorISsSaISsEE3endEv @1343
    _ZNSt6vectorISsSaISsEE5beginEv @1344
    _ZNSt6vectorISsSaISsEE6assignIPKSsEEvT_S5_ @1345
    _ZNSt6vectorISsSaISsEE9push_backERKSs @1346
    _ZNSt6vectorISsSaISsEEC1Ev @1347
    _ZNSt6vectorISsSaISsEED1Ev @1348
    _ZNSt6vectorISsSaISsEEaSESt16initializer_listISsE @1349
    _ZNSt6vectorIjSaIjEE12emplace_backIIjEEEvDpOT_ @1350
    _ZNSt6vectorIjSaIjEE15_M_erase_at_endEPj @1351
    _ZNSt6vectorIjSaIjEE19_M_emplace_back_auxIIjEEEvDpOT_ @1352
    _ZNSt6vectorIjSaIjEE20_M_allocate_and_copyIN9__gnu_cxx17__normal_iteratorIPKjS1_EEEEPjjT_S9_ @1353
    _ZNSt6vectorIjSaIjEE3endEv @1354
    _ZNSt6vectorIjSaIjEE5beginEv @1355
    _ZNSt6vectorIjSaIjEE5clearEv @1356
    _ZNSt6vectorIjSaIjEE9push_backEOj @1357
    _ZNSt6vectorIjSaIjEEC1EOS1_ @1358
    _ZNSt6vectorIjSaIjEEC1Ev @1359
    _ZNSt6vectorIjSaIjEED1Ev @1360
    _ZNSt6vectorIjSaIjEEaSERKS1_ @1361
    _ZNSt8_Rb_treeISsSt4pairIKSsN2KE9AnimationEESt10_Select1stIS4_ESt4lessISsESaIS4_EE10_M_insert_IS0_ISsS3_EEESt17_Rb_tree_iteratorIS4_EPKSt18_Rb_tree_node_baseSH_OT_ @1362
    _ZNSt8_Rb_treeISsSt4pairIKSsN2KE9AnimationEESt10_Select1stIS4_ESt4lessISsESaIS4_EE11_M_get_nodeEv @1363
    _ZNSt8_Rb_treeISsSt4pairIKSsN2KE9AnimationEESt10_Select1stIS4_ESt4lessISsESaIS4_EE11_M_put_nodeEPSt13_Rb_tree_nodeIS4_E @1364
    _ZNSt8_Rb_treeISsSt4pairIKSsN2KE9AnimationEESt10_Select1stIS4_ESt4lessISsESaIS4_EE13_Rb_tree_implIS8_Lb1EE13_M_initializeEv @1365
    _ZNSt8_Rb_treeISsSt4pairIKSsN2KE9AnimationEESt10_Select1stIS4_ESt4lessISsESaIS4_EE13_Rb_tree_implIS8_Lb1EEC1Ev @1366
    _ZNSt8_Rb_treeISsSt4pairIKSsN2KE9AnimationEESt10_Select1stIS4_ESt4lessISsESaIS4_EE13_Rb_tree_implIS8_Lb1EED1Ev @1367
    _ZNSt8_Rb_treeISsSt4pairIKSsN2KE9AnimationEESt10_Select1stIS4_ESt4lessISsESaIS4_EE14_M_create_nodeIIS0_ISsS3_EEEEPSt13_Rb_tree_nodeIS4_EDpOT_ @1368
    _ZNSt8_Rb_treeISsSt4pairIKSsN2KE9AnimationEESt10_Select1stIS4_ESt4lessISsESaIS4_EE15_M_destroy_nodeEPSt13_Rb_tree_nodeIS4_E @1369
    _ZNSt8_Rb_treeISsSt4pairIKSsN2KE9AnimationEESt10_Select1stIS4_ESt4lessISsESaIS4_EE16_M_insert_uniqueIS0_ISsS3_EEES0_ISt17_Rb_tree_iteratorIS4_EbEOT_ @1370
    _ZNSt8_Rb_treeISsSt4pairIKSsN2KE9AnimationEESt10_Select1stIS4_ESt4lessISsESaIS4_EE21_M_get_Node_allocatorEv @1371
    _ZNSt8_Rb_treeISsSt4pairIKSsN2KE9AnimationEESt10_Select1stIS4_ESt4lessISsESaIS4_EE5beginEv @1372
    _ZNSt8_Rb_treeISsSt4pairIKSsN2KE9AnimationEESt10_Select1stIS4_ESt4lessISsESaIS4_EE6_M_endEv @1373
    _ZNSt8_Rb_treeISsSt4pairIKSsN2KE9AnimationEESt10_Select1stIS4_ESt4lessISsESaIS4_EE6_S_keyEPKSt13_Rb_tree_nodeIS4_E @1374
    _ZNSt8_Rb_treeISsSt4pairIKSsN2KE9AnimationEESt10_Select1stIS4_ESt4lessISsESaIS4_EE6_S_keyEPKSt18_Rb_tree_node_base @1375
    _ZNSt8_Rb_treeISsSt4pairIKSsN2KE9AnimationEESt10_Select1stIS4_ESt4lessISsESaIS4_EE7_S_leftEPKSt18_Rb_tree_node_base @1376
    _ZNSt8_Rb_treeISsSt4pairIKSsN2KE9AnimationEESt10_Select1stIS4_ESt4lessISsESaIS4_EE7_S_leftEPSt18_Rb_tree_node_base @1377
    _ZNSt8_Rb_treeISsSt4pairIKSsN2KE9AnimationEESt10_Select1stIS4_ESt4lessISsESaIS4_EE8_M_beginEv @1378
    _ZNSt8_Rb_treeISsSt4pairIKSsN2KE9AnimationEESt10_Select1stIS4_ESt4lessISsESaIS4_EE8_M_eraseEPSt13_Rb_tree_nodeIS4_E @1379
    _ZNSt8_Rb_treeISsSt4pairIKSsN2KE9AnimationEESt10_Select1stIS4_ESt4lessISsESaIS4_EE8_S_rightEPKSt18_Rb_tree_node_base @1380
    _ZNSt8_Rb_treeISsSt4pairIKSsN2KE9AnimationEESt10_Select1stIS4_ESt4lessISsESaIS4_EE8_S_rightEPSt18_Rb_tree_node_base @1381
    _ZNSt8_Rb_treeISsSt4pairIKSsN2KE9AnimationEESt10_Select1stIS4_ESt4lessISsESaIS4_EE8_S_valueEPKSt13_Rb_tree_nodeIS4_E @1382
    _ZNSt8_Rb_treeISsSt4pairIKSsN2KE9AnimationEESt10_Select1stIS4_ESt4lessISsESaIS4_EE8_S_valueEPKSt18_Rb_tree_node_base @1383
    _ZNSt8_Rb_treeISsSt4pairIKSsN2KE9AnimationEESt10_Select1stIS4_ESt4lessISsESaIS4_EEC1Ev @1384
    _ZNSt8_Rb_treeISsSt4pairIKSsN2KE9AnimationEESt10_Select1stIS4_ESt4lessISsESaIS4_EED1Ev @1385
    _ZNSt8_Rb_treeISsSt4pairIKSsPN2KE4FontEESt10_Select1stIS5_ESt4lessISsESaIS5_EE10_M_insert_IS5_EESt17_Rb_tree_iteratorIS5_EPKSt18_Rb_tree_node_baseSH_OT_ @1386
    _ZNSt8_Rb_treeISsSt4pairIKSsPN2KE4FontEESt10_Select1stIS5_ESt4lessISsESaIS5_EE11_M_get_nodeEv @1387
    _ZNSt8_Rb_treeISsSt4pairIKSsPN2KE4FontEESt10_Select1stIS5_ESt4lessISsESaIS5_EE11_M_leftmostEv @1388
    _ZNSt8_Rb_treeISsSt4pairIKSsPN2KE4FontEESt10_Select1stIS5_ESt4lessISsESaIS5_EE11_M_put_nodeEPSt13_Rb_tree_nodeIS5_E @1389
    _ZNSt8_Rb_treeISsSt4pairIKSsPN2KE4FontEESt10_Select1stIS5_ESt4lessISsESaIS5_EE11lower_boundERS1_ @1390
    _ZNSt8_Rb_treeISsSt4pairIKSsPN2KE4FontEESt10_Select1stIS5_ESt4lessISsESaIS5_EE12_M_rightmostEv @1391
    _ZNSt8_Rb_treeISsSt4pairIKSsPN2KE4FontEESt10_Select1stIS5_ESt4lessISsESaIS5_EE13_Rb_tree_implIS9_Lb1EE13_M_initializeEv @1392
    _ZNSt8_Rb_treeISsSt4pairIKSsPN2KE4FontEESt10_Select1stIS5_ESt4lessISsESaIS5_EE13_Rb_tree_implIS9_Lb1EEC1Ev @1393
    _ZNSt8_Rb_treeISsSt4pairIKSsPN2KE4FontEESt10_Select1stIS5_ESt4lessISsESaIS5_EE13_Rb_tree_implIS9_Lb1EED1Ev @1394
    _ZNSt8_Rb_treeISsSt4pairIKSsPN2KE4FontEESt10_Select1stIS5_ESt4lessISsESaIS5_EE14_M_create_nodeIIS5_EEEPSt13_Rb_tree_nodeIS5_EDpOT_ @1395
    _ZNSt8_Rb_treeISsSt4pairIKSsPN2KE4FontEESt10_Select1stIS5_ESt4lessISsESaIS5_EE14_M_lower_boundEPSt13_Rb_tree_nodeIS5_ESE_RS1_ @1396
    _ZNSt8_Rb_treeISsSt4pairIKSsPN2KE4FontEESt10_Select1stIS5_ESt4lessISsESaIS5_EE15_M_destroy_nodeEPSt13_Rb_tree_nodeIS5_E @1397
    _ZNSt8_Rb_treeISsSt4pairIKSsPN2KE4FontEESt10_Select1stIS5_ESt4lessISsESaIS5_EE16_M_insert_uniqueIS5_EES0_ISt17_Rb_tree_iteratorIS5_EbEOT_ @1398
    _ZNSt8_Rb_treeISsSt4pairIKSsPN2KE4FontEESt10_Select1stIS5_ESt4lessISsESaIS5_EE17_M_insert_unique_IS5_EESt17_Rb_tree_iteratorIS5_ESt23_Rb_tree_const_iteratorIS5_EOT_ @1399
    _ZNSt8_Rb_treeISsSt4pairIKSsPN2KE4FontEESt10_Select1stIS5_ESt4lessISsESaIS5_EE21_M_get_Node_allocatorEv @1400
    _ZNSt8_Rb_treeISsSt4pairIKSsPN2KE4FontEESt10_Select1stIS5_ESt4lessISsESaIS5_EE3endEv @1401
    _ZNSt8_Rb_treeISsSt4pairIKSsPN2KE4FontEESt10_Select1stIS5_ESt4lessISsESaIS5_EE5beginEv @1402
    _ZNSt8_Rb_treeISsSt4pairIKSsPN2KE4FontEESt10_Select1stIS5_ESt4lessISsESaIS5_EE5clearEv @1403
    _ZNSt8_Rb_treeISsSt4pairIKSsPN2KE4FontEESt10_Select1stIS5_ESt4lessISsESaIS5_EE6_M_endEv @1404
    _ZNSt8_Rb_treeISsSt4pairIKSsPN2KE4FontEESt10_Select1stIS5_ESt4lessISsESaIS5_EE6_S_keyEPKSt13_Rb_tree_nodeIS5_E @1405
    _ZNSt8_Rb_treeISsSt4pairIKSsPN2KE4FontEESt10_Select1stIS5_ESt4lessISsESaIS5_EE6_S_keyEPKSt18_Rb_tree_node_base @1406
    _ZNSt8_Rb_treeISsSt4pairIKSsPN2KE4FontEESt10_Select1stIS5_ESt4lessISsESaIS5_EE7_M_rootEv @1407
    _ZNSt8_Rb_treeISsSt4pairIKSsPN2KE4FontEESt10_Select1stIS5_ESt4lessISsESaIS5_EE7_S_leftEPKSt18_Rb_tree_node_base @1408
    _ZNSt8_Rb_treeISsSt4pairIKSsPN2KE4FontEESt10_Select1stIS5_ESt4lessISsESaIS5_EE7_S_leftEPSt18_Rb_tree_node_base @1409
    _ZNSt8_Rb_treeISsSt4pairIKSsPN2KE4FontEESt10_Select1stIS5_ESt4lessISsESaIS5_EE8_M_beginEv @1410
    _ZNSt8_Rb_treeISsSt4pairIKSsPN2KE4FontEESt10_Select1stIS5_ESt4lessISsESaIS5_EE8_M_eraseEPSt13_Rb_tree_nodeIS5_E @1411
    _ZNSt8_Rb_treeISsSt4pairIKSsPN2KE4FontEESt10_Select1stIS5_ESt4lessISsESaIS5_EE8_S_rightEPKSt18_Rb_tree_node_base @1412
    _ZNSt8_Rb_treeISsSt4pairIKSsPN2KE4FontEESt10_Select1stIS5_ESt4lessISsESaIS5_EE8_S_rightEPSt18_Rb_tree_node_base @1413
    _ZNSt8_Rb_treeISsSt4pairIKSsPN2KE4FontEESt10_Select1stIS5_ESt4lessISsESaIS5_EE8_S_valueEPKSt13_Rb_tree_nodeIS5_E @1414
    _ZNSt8_Rb_treeISsSt4pairIKSsPN2KE4FontEESt10_Select1stIS5_ESt4lessISsESaIS5_EE8_S_valueEPKSt18_Rb_tree_node_base @1415
    _ZNSt8_Rb_treeISsSt4pairIKSsPN2KE4FontEESt10_Select1stIS5_ESt4lessISsESaIS5_EEC1Ev @1416
    _ZNSt8_Rb_treeISsSt4pairIKSsPN2KE4FontEESt10_Select1stIS5_ESt4lessISsESaIS5_EED1Ev @1417
    _ZNSt8_Rb_treeISsSt4pairIKSsPN2KE5MusicEESt10_Select1stIS5_ESt4lessISsESaIS5_EE10_M_insert_IS5_EESt17_Rb_tree_iteratorIS5_EPKSt18_Rb_tree_node_baseSH_OT_ @1418
    _ZNSt8_Rb_treeISsSt4pairIKSsPN2KE5MusicEESt10_Select1stIS5_ESt4lessISsESaIS5_EE11_M_get_nodeEv @1419
    _ZNSt8_Rb_treeISsSt4pairIKSsPN2KE5MusicEESt10_Select1stIS5_ESt4lessISsESaIS5_EE11_M_leftmostEv @1420
    _ZNSt8_Rb_treeISsSt4pairIKSsPN2KE5MusicEESt10_Select1stIS5_ESt4lessISsESaIS5_EE11_M_put_nodeEPSt13_Rb_tree_nodeIS5_E @1421
    _ZNSt8_Rb_treeISsSt4pairIKSsPN2KE5MusicEESt10_Select1stIS5_ESt4lessISsESaIS5_EE11lower_boundERS1_ @1422
    _ZNSt8_Rb_treeISsSt4pairIKSsPN2KE5MusicEESt10_Select1stIS5_ESt4lessISsESaIS5_EE12_M_rightmostEv @1423
    _ZNSt8_Rb_treeISsSt4pairIKSsPN2KE5MusicEESt10_Select1stIS5_ESt4lessISsESaIS5_EE13_Rb_tree_implIS9_Lb1EE13_M_initializeEv @1424
    _ZNSt8_Rb_treeISsSt4pairIKSsPN2KE5MusicEESt10_Select1stIS5_ESt4lessISsESaIS5_EE13_Rb_tree_implIS9_Lb1EEC1Ev @1425
    _ZNSt8_Rb_treeISsSt4pairIKSsPN2KE5MusicEESt10_Select1stIS5_ESt4lessISsESaIS5_EE13_Rb_tree_implIS9_Lb1EED1Ev @1426
    _ZNSt8_Rb_treeISsSt4pairIKSsPN2KE5MusicEESt10_Select1stIS5_ESt4lessISsESaIS5_EE14_M_create_nodeIIS5_EEEPSt13_Rb_tree_nodeIS5_EDpOT_ @1427
    _ZNSt8_Rb_treeISsSt4pairIKSsPN2KE5MusicEESt10_Select1stIS5_ESt4lessISsESaIS5_EE14_M_lower_boundEPSt13_Rb_tree_nodeIS5_ESE_RS1_ @1428
    _ZNSt8_Rb_treeISsSt4pairIKSsPN2KE5MusicEESt10_Select1stIS5_ESt4lessISsESaIS5_EE15_M_destroy_nodeEPSt13_Rb_tree_nodeIS5_E @1429
    _ZNSt8_Rb_treeISsSt4pairIKSsPN2KE5MusicEESt10_Select1stIS5_ESt4lessISsESaIS5_EE16_M_insert_uniqueIS5_EES0_ISt17_Rb_tree_iteratorIS5_EbEOT_ @1430
    _ZNSt8_Rb_treeISsSt4pairIKSsPN2KE5MusicEESt10_Select1stIS5_ESt4lessISsESaIS5_EE17_M_insert_unique_IS5_EESt17_Rb_tree_iteratorIS5_ESt23_Rb_tree_const_iteratorIS5_EOT_ @1431
    _ZNSt8_Rb_treeISsSt4pairIKSsPN2KE5MusicEESt10_Select1stIS5_ESt4lessISsESaIS5_EE21_M_get_Node_allocatorEv @1432
    _ZNSt8_Rb_treeISsSt4pairIKSsPN2KE5MusicEESt10_Select1stIS5_ESt4lessISsESaIS5_EE3endEv @1433
    _ZNSt8_Rb_treeISsSt4pairIKSsPN2KE5MusicEESt10_Select1stIS5_ESt4lessISsESaIS5_EE5beginEv @1434
    _ZNSt8_Rb_treeISsSt4pairIKSsPN2KE5MusicEESt10_Select1stIS5_ESt4lessISsESaIS5_EE5clearEv @1435
    _ZNSt8_Rb_treeISsSt4pairIKSsPN2KE5MusicEESt10_Select1stIS5_ESt4lessISsESaIS5_EE6_M_endEv @1436
    _ZNSt8_Rb_treeISsSt4pairIKSsPN2KE5MusicEESt10_Select1stIS5_ESt4lessISsESaIS5_EE6_S_keyEPKSt13_Rb_tree_nodeIS5_E @1437
    _ZNSt8_Rb_treeISsSt4pairIKSsPN2KE5MusicEESt10_Select1stIS5_ESt4lessISsESaIS5_EE6_S_keyEPKSt18_Rb_tree_node_base @1438
    _ZNSt8_Rb_treeISsSt4pairIKSsPN2KE5MusicEESt10_Select1stIS5_ESt4lessISsESaIS5_EE7_M_rootEv @1439
    _ZNSt8_Rb_treeISsSt4pairIKSsPN2KE5MusicEESt10_Select1stIS5_ESt4lessISsESaIS5_EE7_S_leftEPKSt18_Rb_tree_node_base @1440
    _ZNSt8_Rb_treeISsSt4pairIKSsPN2KE5MusicEESt10_Select1stIS5_ESt4lessISsESaIS5_EE7_S_leftEPSt18_Rb_tree_node_base @1441
    _ZNSt8_Rb_treeISsSt4pairIKSsPN2KE5MusicEESt10_Select1stIS5_ESt4lessISsESaIS5_EE8_M_beginEv @1442
    _ZNSt8_Rb_treeISsSt4pairIKSsPN2KE5MusicEESt10_Select1stIS5_ESt4lessISsESaIS5_EE8_M_eraseEPSt13_Rb_tree_nodeIS5_E @1443
    _ZNSt8_Rb_treeISsSt4pairIKSsPN2KE5MusicEESt10_Select1stIS5_ESt4lessISsESaIS5_EE8_S_rightEPKSt18_Rb_tree_node_base @1444
    _ZNSt8_Rb_treeISsSt4pairIKSsPN2KE5MusicEESt10_Select1stIS5_ESt4lessISsESaIS5_EE8_S_rightEPSt18_Rb_tree_node_base @1445
    _ZNSt8_Rb_treeISsSt4pairIKSsPN2KE5MusicEESt10_Select1stIS5_ESt4lessISsESaIS5_EE8_S_valueEPKSt13_Rb_tree_nodeIS5_E @1446
    _ZNSt8_Rb_treeISsSt4pairIKSsPN2KE5MusicEESt10_Select1stIS5_ESt4lessISsESaIS5_EE8_S_valueEPKSt18_Rb_tree_node_base @1447
    _ZNSt8_Rb_treeISsSt4pairIKSsPN2KE5MusicEESt10_Select1stIS5_ESt4lessISsESaIS5_EEC1Ev @1448
    _ZNSt8_Rb_treeISsSt4pairIKSsPN2KE5MusicEESt10_Select1stIS5_ESt4lessISsESaIS5_EED1Ev @1449
    _ZNSt8_Rb_treeISsSt4pairIKSsPN2KE5SoundEESt10_Select1stIS5_ESt4lessISsESaIS5_EE10_M_insert_IS5_EESt17_Rb_tree_iteratorIS5_EPKSt18_Rb_tree_node_baseSH_OT_ @1450
    _ZNSt8_Rb_treeISsSt4pairIKSsPN2KE5SoundEESt10_Select1stIS5_ESt4lessISsESaIS5_EE11_M_get_nodeEv @1451
    _ZNSt8_Rb_treeISsSt4pairIKSsPN2KE5SoundEESt10_Select1stIS5_ESt4lessISsESaIS5_EE11_M_leftmostEv @1452
    _ZNSt8_Rb_treeISsSt4pairIKSsPN2KE5SoundEESt10_Select1stIS5_ESt4lessISsESaIS5_EE11_M_put_nodeEPSt13_Rb_tree_nodeIS5_E @1453
    _ZNSt8_Rb_treeISsSt4pairIKSsPN2KE5SoundEESt10_Select1stIS5_ESt4lessISsESaIS5_EE11lower_boundERS1_ @1454
    _ZNSt8_Rb_treeISsSt4pairIKSsPN2KE5SoundEESt10_Select1stIS5_ESt4lessISsESaIS5_EE12_M_rightmostEv @1455
    _ZNSt8_Rb_treeISsSt4pairIKSsPN2KE5SoundEESt10_Select1stIS5_ESt4lessISsESaIS5_EE13_Rb_tree_implIS9_Lb1EE13_M_initializeEv @1456
    _ZNSt8_Rb_treeISsSt4pairIKSsPN2KE5SoundEESt10_Select1stIS5_ESt4lessISsESaIS5_EE13_Rb_tree_implIS9_Lb1EEC1Ev @1457
    _ZNSt8_Rb_treeISsSt4pairIKSsPN2KE5SoundEESt10_Select1stIS5_ESt4lessISsESaIS5_EE13_Rb_tree_implIS9_Lb1EED1Ev @1458
    _ZNSt8_Rb_treeISsSt4pairIKSsPN2KE5SoundEESt10_Select1stIS5_ESt4lessISsESaIS5_EE14_M_create_nodeIIS5_EEEPSt13_Rb_tree_nodeIS5_EDpOT_ @1459
    _ZNSt8_Rb_treeISsSt4pairIKSsPN2KE5SoundEESt10_Select1stIS5_ESt4lessISsESaIS5_EE14_M_lower_boundEPSt13_Rb_tree_nodeIS5_ESE_RS1_ @1460
    _ZNSt8_Rb_treeISsSt4pairIKSsPN2KE5SoundEESt10_Select1stIS5_ESt4lessISsESaIS5_EE15_M_destroy_nodeEPSt13_Rb_tree_nodeIS5_E @1461
    _ZNSt8_Rb_treeISsSt4pairIKSsPN2KE5SoundEESt10_Select1stIS5_ESt4lessISsESaIS5_EE16_M_insert_uniqueIS5_EES0_ISt17_Rb_tree_iteratorIS5_EbEOT_ @1462
    _ZNSt8_Rb_treeISsSt4pairIKSsPN2KE5SoundEESt10_Select1stIS5_ESt4lessISsESaIS5_EE17_M_insert_unique_IS5_EESt17_Rb_tree_iteratorIS5_ESt23_Rb_tree_const_iteratorIS5_EOT_ @1463
    _ZNSt8_Rb_treeISsSt4pairIKSsPN2KE5SoundEESt10_Select1stIS5_ESt4lessISsESaIS5_EE21_M_get_Node_allocatorEv @1464
    _ZNSt8_Rb_treeISsSt4pairIKSsPN2KE5SoundEESt10_Select1stIS5_ESt4lessISsESaIS5_EE3endEv @1465
    _ZNSt8_Rb_treeISsSt4pairIKSsPN2KE5SoundEESt10_Select1stIS5_ESt4lessISsESaIS5_EE5beginEv @1466
    _ZNSt8_Rb_treeISsSt4pairIKSsPN2KE5SoundEESt10_Select1stIS5_ESt4lessISsESaIS5_EE5clearEv @1467
    _ZNSt8_Rb_treeISsSt4pairIKSsPN2KE5SoundEESt10_Select1stIS5_ESt4lessISsESaIS5_EE6_M_endEv @1468
    _ZNSt8_Rb_treeISsSt4pairIKSsPN2KE5SoundEESt10_Select1stIS5_ESt4lessISsESaIS5_EE6_S_keyEPKSt13_Rb_tree_nodeIS5_E @1469
    _ZNSt8_Rb_treeISsSt4pairIKSsPN2KE5SoundEESt10_Select1stIS5_ESt4lessISsESaIS5_EE6_S_keyEPKSt18_Rb_tree_node_base @1470
    _ZNSt8_Rb_treeISsSt4pairIKSsPN2KE5SoundEESt10_Select1stIS5_ESt4lessISsESaIS5_EE7_M_rootEv @1471
    _ZNSt8_Rb_treeISsSt4pairIKSsPN2KE5SoundEESt10_Select1stIS5_ESt4lessISsESaIS5_EE7_S_leftEPKSt18_Rb_tree_node_base @1472
    _ZNSt8_Rb_treeISsSt4pairIKSsPN2KE5SoundEESt10_Select1stIS5_ESt4lessISsESaIS5_EE7_S_leftEPSt18_Rb_tree_node_base @1473
    _ZNSt8_Rb_treeISsSt4pairIKSsPN2KE5SoundEESt10_Select1stIS5_ESt4lessISsESaIS5_EE8_M_beginEv @1474
    _ZNSt8_Rb_treeISsSt4pairIKSsPN2KE5SoundEESt10_Select1stIS5_ESt4lessISsESaIS5_EE8_M_eraseEPSt13_Rb_tree_nodeIS5_E @1475
    _ZNSt8_Rb_treeISsSt4pairIKSsPN2KE5SoundEESt10_Select1stIS5_ESt4lessISsESaIS5_EE8_S_rightEPKSt18_Rb_tree_node_base @1476
    _ZNSt8_Rb_treeISsSt4pairIKSsPN2KE5SoundEESt10_Select1stIS5_ESt4lessISsESaIS5_EE8_S_rightEPSt18_Rb_tree_node_base @1477
    _ZNSt8_Rb_treeISsSt4pairIKSsPN2KE5SoundEESt10_Select1stIS5_ESt4lessISsESaIS5_EE8_S_valueEPKSt13_Rb_tree_nodeIS5_E @1478
    _ZNSt8_Rb_treeISsSt4pairIKSsPN2KE5SoundEESt10_Select1stIS5_ESt4lessISsESaIS5_EE8_S_valueEPKSt18_Rb_tree_node_base @1479
    _ZNSt8_Rb_treeISsSt4pairIKSsPN2KE5SoundEESt10_Select1stIS5_ESt4lessISsESaIS5_EEC1Ev @1480
    _ZNSt8_Rb_treeISsSt4pairIKSsPN2KE5SoundEESt10_Select1stIS5_ESt4lessISsESaIS5_EED1Ev @1481
    _ZNSt8_Rb_treeISsSt4pairIKSsPN2KE6CursorEESt10_Select1stIS5_ESt4lessISsESaIS5_EE10_M_insert_IS5_EESt17_Rb_tree_iteratorIS5_EPKSt18_Rb_tree_node_baseSH_OT_ @1482
    _ZNSt8_Rb_treeISsSt4pairIKSsPN2KE6CursorEESt10_Select1stIS5_ESt4lessISsESaIS5_EE11_M_get_nodeEv @1483
    _ZNSt8_Rb_treeISsSt4pairIKSsPN2KE6CursorEESt10_Select1stIS5_ESt4lessISsESaIS5_EE11_M_leftmostEv @1484
    _ZNSt8_Rb_treeISsSt4pairIKSsPN2KE6CursorEESt10_Select1stIS5_ESt4lessISsESaIS5_EE11_M_put_nodeEPSt13_Rb_tree_nodeIS5_E @1485
    _ZNSt8_Rb_treeISsSt4pairIKSsPN2KE6CursorEESt10_Select1stIS5_ESt4lessISsESaIS5_EE11lower_boundERS1_ @1486
    _ZNSt8_Rb_treeISsSt4pairIKSsPN2KE6CursorEESt10_Select1stIS5_ESt4lessISsESaIS5_EE12_M_rightmostEv @1487
    _ZNSt8_Rb_treeISsSt4pairIKSsPN2KE6CursorEESt10_Select1stIS5_ESt4lessISsESaIS5_EE13_Rb_tree_implIS9_Lb1EE13_M_initializeEv @1488
    _ZNSt8_Rb_treeISsSt4pairIKSsPN2KE6CursorEESt10_Select1stIS5_ESt4lessISsESaIS5_EE13_Rb_tree_implIS9_Lb1EEC1Ev @1489
    _ZNSt8_Rb_treeISsSt4pairIKSsPN2KE6CursorEESt10_Select1stIS5_ESt4lessISsESaIS5_EE13_Rb_tree_implIS9_Lb1EED1Ev @1490
    _ZNSt8_Rb_treeISsSt4pairIKSsPN2KE6CursorEESt10_Select1stIS5_ESt4lessISsESaIS5_EE14_M_create_nodeIIS5_EEEPSt13_Rb_tree_nodeIS5_EDpOT_ @1491
    _ZNSt8_Rb_treeISsSt4pairIKSsPN2KE6CursorEESt10_Select1stIS5_ESt4lessISsESaIS5_EE14_M_lower_boundEPSt13_Rb_tree_nodeIS5_ESE_RS1_ @1492
    _ZNSt8_Rb_treeISsSt4pairIKSsPN2KE6CursorEESt10_Select1stIS5_ESt4lessISsESaIS5_EE15_M_destroy_nodeEPSt13_Rb_tree_nodeIS5_E @1493
    _ZNSt8_Rb_treeISsSt4pairIKSsPN2KE6CursorEESt10_Select1stIS5_ESt4lessISsESaIS5_EE16_M_insert_uniqueIS5_EES0_ISt17_Rb_tree_iteratorIS5_EbEOT_ @1494
    _ZNSt8_Rb_treeISsSt4pairIKSsPN2KE6CursorEESt10_Select1stIS5_ESt4lessISsESaIS5_EE17_M_insert_unique_IS5_EESt17_Rb_tree_iteratorIS5_ESt23_Rb_tree_const_iteratorIS5_EOT_ @1495
    _ZNSt8_Rb_treeISsSt4pairIKSsPN2KE6CursorEESt10_Select1stIS5_ESt4lessISsESaIS5_EE21_M_get_Node_allocatorEv @1496
    _ZNSt8_Rb_treeISsSt4pairIKSsPN2KE6CursorEESt10_Select1stIS5_ESt4lessISsESaIS5_EE3endEv @1497
    _ZNSt8_Rb_treeISsSt4pairIKSsPN2KE6CursorEESt10_Select1stIS5_ESt4lessISsESaIS5_EE5beginEv @1498
    _ZNSt8_Rb_treeISsSt4pairIKSsPN2KE6CursorEESt10_Select1stIS5_ESt4lessISsESaIS5_EE5clearEv @1499
    _ZNSt8_Rb_treeISsSt4pairIKSsPN2KE6CursorEESt10_Select1stIS5_ESt4lessISsESaIS5_EE6_M_endEv @1500
    _ZNSt8_Rb_treeISsSt4pairIKSsPN2KE6CursorEESt10_Select1stIS5_ESt4lessISsESaIS5_EE6_S_keyEPKSt13_Rb_tree_nodeIS5_E @1501
    _ZNSt8_Rb_treeISsSt4pairIKSsPN2KE6CursorEESt10_Select1stIS5_ESt4lessISsESaIS5_EE6_S_keyEPKSt18_Rb_tree_node_base @1502
    _ZNSt8_Rb_treeISsSt4pairIKSsPN2KE6CursorEESt10_Select1stIS5_ESt4lessISsESaIS5_EE7_M_rootEv @1503
    _ZNSt8_Rb_treeISsSt4pairIKSsPN2KE6CursorEESt10_Select1stIS5_ESt4lessISsESaIS5_EE7_S_leftEPKSt18_Rb_tree_node_base @1504
    _ZNSt8_Rb_treeISsSt4pairIKSsPN2KE6CursorEESt10_Select1stIS5_ESt4lessISsESaIS5_EE7_S_leftEPSt18_Rb_tree_node_base @1505
    _ZNSt8_Rb_treeISsSt4pairIKSsPN2KE6CursorEESt10_Select1stIS5_ESt4lessISsESaIS5_EE8_M_beginEv @1506
    _ZNSt8_Rb_treeISsSt4pairIKSsPN2KE6CursorEESt10_Select1stIS5_ESt4lessISsESaIS5_EE8_M_eraseEPSt13_Rb_tree_nodeIS5_E @1507
    _ZNSt8_Rb_treeISsSt4pairIKSsPN2KE6CursorEESt10_Select1stIS5_ESt4lessISsESaIS5_EE8_S_rightEPKSt18_Rb_tree_node_base @1508
    _ZNSt8_Rb_treeISsSt4pairIKSsPN2KE6CursorEESt10_Select1stIS5_ESt4lessISsESaIS5_EE8_S_rightEPSt18_Rb_tree_node_base @1509
    _ZNSt8_Rb_treeISsSt4pairIKSsPN2KE6CursorEESt10_Select1stIS5_ESt4lessISsESaIS5_EE8_S_valueEPKSt13_Rb_tree_nodeIS5_E @1510
    _ZNSt8_Rb_treeISsSt4pairIKSsPN2KE6CursorEESt10_Select1stIS5_ESt4lessISsESaIS5_EE8_S_valueEPKSt18_Rb_tree_node_base @1511
    _ZNSt8_Rb_treeISsSt4pairIKSsPN2KE6CursorEESt10_Select1stIS5_ESt4lessISsESaIS5_EEC1Ev @1512
    _ZNSt8_Rb_treeISsSt4pairIKSsPN2KE6CursorEESt10_Select1stIS5_ESt4lessISsESaIS5_EED1Ev @1513
    _ZNSt8_Rb_treeISsSt4pairIKSsPN2KE7TextureEESt10_Select1stIS5_ESt4lessISsESaIS5_EE10_M_insert_IS5_EESt17_Rb_tree_iteratorIS5_EPKSt18_Rb_tree_node_baseSH_OT_ @1514
    _ZNSt8_Rb_treeISsSt4pairIKSsPN2KE7TextureEESt10_Select1stIS5_ESt4lessISsESaIS5_EE11_M_get_nodeEv @1515
    _ZNSt8_Rb_treeISsSt4pairIKSsPN2KE7TextureEESt10_Select1stIS5_ESt4lessISsESaIS5_EE11_M_leftmostEv @1516
    _ZNSt8_Rb_treeISsSt4pairIKSsPN2KE7TextureEESt10_Select1stIS5_ESt4lessISsESaIS5_EE11_M_put_nodeEPSt13_Rb_tree_nodeIS5_E @1517
    _ZNSt8_Rb_treeISsSt4pairIKSsPN2KE7TextureEESt10_Select1stIS5_ESt4lessISsESaIS5_EE11lower_boundERS1_ @1518
    _ZNSt8_Rb_treeISsSt4pairIKSsPN2KE7TextureEESt10_Select1stIS5_ESt4lessISsESaIS5_EE12_M_rightmostEv @1519
    _ZNSt8_Rb_treeISsSt4pairIKSsPN2KE7TextureEESt10_Select1stIS5_ESt4lessISsESaIS5_EE13_Rb_tree_implIS9_Lb1EE13_M_initializeEv @1520
    _ZNSt8_Rb_treeISsSt4pairIKSsPN2KE7TextureEESt10_Select1stIS5_ESt4lessISsESaIS5_EE13_Rb_tree_implIS9_Lb1EEC1Ev @1521
    _ZNSt8_Rb_treeISsSt4pairIKSsPN2KE7TextureEESt10_Select1stIS5_ESt4lessISsESaIS5_EE13_Rb_tree_implIS9_Lb1EED1Ev @1522
    _ZNSt8_Rb_treeISsSt4pairIKSsPN2KE7TextureEESt10_Select1stIS5_ESt4lessISsESaIS5_EE14_M_create_nodeIIS5_EEEPSt13_Rb_tree_nodeIS5_EDpOT_ @1523
    _ZNSt8_Rb_treeISsSt4pairIKSsPN2KE7TextureEESt10_Select1stIS5_ESt4lessISsESaIS5_EE14_M_lower_boundEPSt13_Rb_tree_nodeIS5_ESE_RS1_ @1524
    _ZNSt8_Rb_treeISsSt4pairIKSsPN2KE7TextureEESt10_Select1stIS5_ESt4lessISsESaIS5_EE15_M_destroy_nodeEPSt13_Rb_tree_nodeIS5_E @1525
    _ZNSt8_Rb_treeISsSt4pairIKSsPN2KE7TextureEESt10_Select1stIS5_ESt4lessISsESaIS5_EE16_M_insert_uniqueIS5_EES0_ISt17_Rb_tree_iteratorIS5_EbEOT_ @1526
    _ZNSt8_Rb_treeISsSt4pairIKSsPN2KE7TextureEESt10_Select1stIS5_ESt4lessISsESaIS5_EE17_M_insert_unique_IS5_EESt17_Rb_tree_iteratorIS5_ESt23_Rb_tree_const_iteratorIS5_EOT_ @1527
    _ZNSt8_Rb_treeISsSt4pairIKSsPN2KE7TextureEESt10_Select1stIS5_ESt4lessISsESaIS5_EE21_M_get_Node_allocatorEv @1528
    _ZNSt8_Rb_treeISsSt4pairIKSsPN2KE7TextureEESt10_Select1stIS5_ESt4lessISsESaIS5_EE3endEv @1529
    _ZNSt8_Rb_treeISsSt4pairIKSsPN2KE7TextureEESt10_Select1stIS5_ESt4lessISsESaIS5_EE5beginEv @1530
    _ZNSt8_Rb_treeISsSt4pairIKSsPN2KE7TextureEESt10_Select1stIS5_ESt4lessISsESaIS5_EE5clearEv @1531
    _ZNSt8_Rb_treeISsSt4pairIKSsPN2KE7TextureEESt10_Select1stIS5_ESt4lessISsESaIS5_EE6_M_endEv @1532
    _ZNSt8_Rb_treeISsSt4pairIKSsPN2KE7TextureEESt10_Select1stIS5_ESt4lessISsESaIS5_EE6_S_keyEPKSt13_Rb_tree_nodeIS5_E @1533
    _ZNSt8_Rb_treeISsSt4pairIKSsPN2KE7TextureEESt10_Select1stIS5_ESt4lessISsESaIS5_EE6_S_keyEPKSt18_Rb_tree_node_base @1534
    _ZNSt8_Rb_treeISsSt4pairIKSsPN2KE7TextureEESt10_Select1stIS5_ESt4lessISsESaIS5_EE7_M_rootEv @1535
    _ZNSt8_Rb_treeISsSt4pairIKSsPN2KE7TextureEESt10_Select1stIS5_ESt4lessISsESaIS5_EE7_S_leftEPKSt18_Rb_tree_node_base @1536
    _ZNSt8_Rb_treeISsSt4pairIKSsPN2KE7TextureEESt10_Select1stIS5_ESt4lessISsESaIS5_EE7_S_leftEPSt18_Rb_tree_node_base @1537
    _ZNSt8_Rb_treeISsSt4pairIKSsPN2KE7TextureEESt10_Select1stIS5_ESt4lessISsESaIS5_EE8_M_beginEv @1538
    _ZNSt8_Rb_treeISsSt4pairIKSsPN2KE7TextureEESt10_Select1stIS5_ESt4lessISsESaIS5_EE8_M_eraseEPSt13_Rb_tree_nodeIS5_E @1539
    _ZNSt8_Rb_treeISsSt4pairIKSsPN2KE7TextureEESt10_Select1stIS5_ESt4lessISsESaIS5_EE8_S_rightEPKSt18_Rb_tree_node_base @1540
    _ZNSt8_Rb_treeISsSt4pairIKSsPN2KE7TextureEESt10_Select1stIS5_ESt4lessISsESaIS5_EE8_S_rightEPSt18_Rb_tree_node_base @1541
    _ZNSt8_Rb_treeISsSt4pairIKSsPN2KE7TextureEESt10_Select1stIS5_ESt4lessISsESaIS5_EE8_S_valueEPKSt13_Rb_tree_nodeIS5_E @1542
    _ZNSt8_Rb_treeISsSt4pairIKSsPN2KE7TextureEESt10_Select1stIS5_ESt4lessISsESaIS5_EE8_S_valueEPKSt18_Rb_tree_node_base @1543
    _ZNSt8_Rb_treeISsSt4pairIKSsPN2KE7TextureEESt10_Select1stIS5_ESt4lessISsESaIS5_EEC1Ev @1544
    _ZNSt8_Rb_treeISsSt4pairIKSsPN2KE7TextureEESt10_Select1stIS5_ESt4lessISsESaIS5_EED1Ev @1545
    _ZNSt8_Rb_treeISsSt4pairIKSsPN2KE7TilesetEESt10_Select1stIS5_ESt4lessISsESaIS5_EE10_M_insert_IS5_EESt17_Rb_tree_iteratorIS5_EPKSt18_Rb_tree_node_baseSH_OT_ @1546
    _ZNSt8_Rb_treeISsSt4pairIKSsPN2KE7TilesetEESt10_Select1stIS5_ESt4lessISsESaIS5_EE11_M_get_nodeEv @1547
    _ZNSt8_Rb_treeISsSt4pairIKSsPN2KE7TilesetEESt10_Select1stIS5_ESt4lessISsESaIS5_EE11_M_leftmostEv @1548
    _ZNSt8_Rb_treeISsSt4pairIKSsPN2KE7TilesetEESt10_Select1stIS5_ESt4lessISsESaIS5_EE11_M_put_nodeEPSt13_Rb_tree_nodeIS5_E @1549
    _ZNSt8_Rb_treeISsSt4pairIKSsPN2KE7TilesetEESt10_Select1stIS5_ESt4lessISsESaIS5_EE11lower_boundERS1_ @1550
    _ZNSt8_Rb_treeISsSt4pairIKSsPN2KE7TilesetEESt10_Select1stIS5_ESt4lessISsESaIS5_EE12_M_rightmostEv @1551
    _ZNSt8_Rb_treeISsSt4pairIKSsPN2KE7TilesetEESt10_Select1stIS5_ESt4lessISsESaIS5_EE13_Rb_tree_implIS9_Lb1EE13_M_initializeEv @1552
    _ZNSt8_Rb_treeISsSt4pairIKSsPN2KE7TilesetEESt10_Select1stIS5_ESt4lessISsESaIS5_EE13_Rb_tree_implIS9_Lb1EEC1Ev @1553
    _ZNSt8_Rb_treeISsSt4pairIKSsPN2KE7TilesetEESt10_Select1stIS5_ESt4lessISsESaIS5_EE13_Rb_tree_implIS9_Lb1EED1Ev @1554
    _ZNSt8_Rb_treeISsSt4pairIKSsPN2KE7TilesetEESt10_Select1stIS5_ESt4lessISsESaIS5_EE14_M_create_nodeIIS5_EEEPSt13_Rb_tree_nodeIS5_EDpOT_ @1555
    _ZNSt8_Rb_treeISsSt4pairIKSsPN2KE7TilesetEESt10_Select1stIS5_ESt4lessISsESaIS5_EE14_M_lower_boundEPSt13_Rb_tree_nodeIS5_ESE_RS1_ @1556
    _ZNSt8_Rb_treeISsSt4pairIKSsPN2KE7TilesetEESt10_Select1stIS5_ESt4lessISsESaIS5_EE15_M_destroy_nodeEPSt13_Rb_tree_nodeIS5_E @1557
    _ZNSt8_Rb_treeISsSt4pairIKSsPN2KE7TilesetEESt10_Select1stIS5_ESt4lessISsESaIS5_EE16_M_insert_uniqueIS5_EES0_ISt17_Rb_tree_iteratorIS5_EbEOT_ @1558
    _ZNSt8_Rb_treeISsSt4pairIKSsPN2KE7TilesetEESt10_Select1stIS5_ESt4lessISsESaIS5_EE17_M_insert_unique_IS5_EESt17_Rb_tree_iteratorIS5_ESt23_Rb_tree_const_iteratorIS5_EOT_ @1559
    _ZNSt8_Rb_treeISsSt4pairIKSsPN2KE7TilesetEESt10_Select1stIS5_ESt4lessISsESaIS5_EE21_M_get_Node_allocatorEv @1560
    _ZNSt8_Rb_treeISsSt4pairIKSsPN2KE7TilesetEESt10_Select1stIS5_ESt4lessISsESaIS5_EE3endEv @1561
    _ZNSt8_Rb_treeISsSt4pairIKSsPN2KE7TilesetEESt10_Select1stIS5_ESt4lessISsESaIS5_EE5beginEv @1562
    _ZNSt8_Rb_treeISsSt4pairIKSsPN2KE7TilesetEESt10_Select1stIS5_ESt4lessISsESaIS5_EE5clearEv @1563
    _ZNSt8_Rb_treeISsSt4pairIKSsPN2KE7TilesetEESt10_Select1stIS5_ESt4lessISsESaIS5_EE6_M_endEv @1564
    _ZNSt8_Rb_treeISsSt4pairIKSsPN2KE7TilesetEESt10_Select1stIS5_ESt4lessISsESaIS5_EE6_S_keyEPKSt13_Rb_tree_nodeIS5_E @1565
    _ZNSt8_Rb_treeISsSt4pairIKSsPN2KE7TilesetEESt10_Select1stIS5_ESt4lessISsESaIS5_EE6_S_keyEPKSt18_Rb_tree_node_base @1566
    _ZNSt8_Rb_treeISsSt4pairIKSsPN2KE7TilesetEESt10_Select1stIS5_ESt4lessISsESaIS5_EE7_M_rootEv @1567
    _ZNSt8_Rb_treeISsSt4pairIKSsPN2KE7TilesetEESt10_Select1stIS5_ESt4lessISsESaIS5_EE7_S_leftEPKSt18_Rb_tree_node_base @1568
    _ZNSt8_Rb_treeISsSt4pairIKSsPN2KE7TilesetEESt10_Select1stIS5_ESt4lessISsESaIS5_EE7_S_leftEPSt18_Rb_tree_node_base @1569
    _ZNSt8_Rb_treeISsSt4pairIKSsPN2KE7TilesetEESt10_Select1stIS5_ESt4lessISsESaIS5_EE8_M_beginEv @1570
    _ZNSt8_Rb_treeISsSt4pairIKSsPN2KE7TilesetEESt10_Select1stIS5_ESt4lessISsESaIS5_EE8_M_eraseEPSt13_Rb_tree_nodeIS5_E @1571
    _ZNSt8_Rb_treeISsSt4pairIKSsPN2KE7TilesetEESt10_Select1stIS5_ESt4lessISsESaIS5_EE8_S_rightEPKSt18_Rb_tree_node_base @1572
    _ZNSt8_Rb_treeISsSt4pairIKSsPN2KE7TilesetEESt10_Select1stIS5_ESt4lessISsESaIS5_EE8_S_rightEPSt18_Rb_tree_node_base @1573
    _ZNSt8_Rb_treeISsSt4pairIKSsPN2KE7TilesetEESt10_Select1stIS5_ESt4lessISsESaIS5_EE8_S_valueEPKSt13_Rb_tree_nodeIS5_E @1574
    _ZNSt8_Rb_treeISsSt4pairIKSsPN2KE7TilesetEESt10_Select1stIS5_ESt4lessISsESaIS5_EE8_S_valueEPKSt18_Rb_tree_node_base @1575
    _ZNSt8_Rb_treeISsSt4pairIKSsPN2KE7TilesetEESt10_Select1stIS5_ESt4lessISsESaIS5_EEC1Ev @1576
    _ZNSt8_Rb_treeISsSt4pairIKSsPN2KE7TilesetEESt10_Select1stIS5_ESt4lessISsESaIS5_EED1Ev @1577
    _ZSt10_ConstructIN2KE4RectEIS1_EEvPT_DpOT0_ @1578
    _ZSt10_ConstructISsIRKSsEEvPT_DpOT0_ @1579
    _ZSt10_ConstructISsISsEEvPT_DpOT0_ @1580
    _ZSt10__distanceIPKSsENSt15iterator_traitsIT_E15difference_typeES3_S3_St26random_access_iterator_tag @1581
    _ZSt10__fill_n_aIPP13_SDL_JoystickjS1_EN9__gnu_cxx11__enable_ifIXsrSt11__is_scalarIT1_E7__valueET_E6__typeES8_T0_RKS6_ @1582
    _ZSt11__addressofIKSt4pairIKSsN2KE9AnimationEEEPT_RS6_ @1583
    _ZSt11__addressofIN2KE4RectEEPT_RS2_ @1584
    _ZSt11__addressofISsEPT_RS0_ @1585
    _ZSt12__miter_baseIN9__gnu_cxx17__normal_iteratorIPKjSt6vectorIjSaIjEEEEENSt11_Miter_baseIT_E13iterator_typeES9_ @1586
    _ZSt12__miter_baseIPKSsENSt11_Miter_baseIT_E13iterator_typeES3_ @1587
    _ZSt12__miter_baseIPjENSt11_Miter_baseIT_E13iterator_typeES2_ @1588
    _ZSt12__miter_baseISt13move_iteratorIPjEENSt11_Miter_baseIT_E13iterator_typeES4_ @1589
    _ZSt12__niter_baseIN9__gnu_cxx17__normal_iteratorIPKjSt6vectorIjSaIjEEEEENSt11_Niter_baseIT_E13iterator_typeES9_ @1590
    _ZSt12__niter_baseIN9__gnu_cxx17__normal_iteratorIPjSt6vectorIjSaIjEEEEENSt11_Niter_baseIT_E13iterator_typeES8_ @1591
    _ZSt12__niter_baseIPKSsENSt11_Niter_baseIT_E13iterator_typeES3_ @1592
    _ZSt12__niter_baseIPP13_SDL_JoystickENSt11_Niter_baseIT_E13iterator_typeES4_ @1593
    _ZSt12__niter_baseIPSsENSt11_Niter_baseIT_E13iterator_typeES2_ @1594
    _ZSt12__niter_baseIPjENSt11_Niter_baseIT_E13iterator_typeES2_ @1595
    _ZSt13__copy_move_aILb0EPKSsPSsET1_T0_S4_S3_ @1596
    _ZSt13__copy_move_aILb0EPKjPjET1_T0_S4_S3_ @1597
    _ZSt13__copy_move_aILb0EPjS0_ET1_T0_S2_S1_ @1598
    _ZSt13__copy_move_aILb1EPjS0_ET1_T0_S2_S1_ @1599
    _ZSt14__copy_move_a2ILb0EN9__gnu_cxx17__normal_iteratorIPKjSt6vectorIjSaIjEEEENS1_IPjS6_EEET1_T0_SB_SA_ @1600
    _ZSt14__copy_move_a2ILb0EN9__gnu_cxx17__normal_iteratorIPKjSt6vectorIjSaIjEEEEPjET1_T0_SA_S9_ @1601
    _ZSt14__copy_move_a2ILb0EPKSsPSsET1_T0_S4_S3_ @1602
    _ZSt14__copy_move_a2ILb0EPjS0_ET1_T0_S2_S1_ @1603
    _ZSt14__copy_move_a2ILb1EPjS0_ET1_T0_S2_S1_ @1604
    _ZSt15__alloc_on_copyISaIjEEvRT_RKS1_ @1605
    _ZSt18__do_alloc_on_copyISaIjEEvRT_RKS1_St17integral_constantIbLb0EE @1606
    _ZSt18uninitialized_copyIN9__gnu_cxx17__normal_iteratorIPKjSt6vectorIjSaIjEEEEPjET0_T_SA_S9_ @1607
    _ZSt18uninitialized_copyIPKSsPSsET0_T_S4_S3_ @1608
    _ZSt18uninitialized_copyIPjS0_ET0_T_S2_S1_ @1609
    _ZSt18uninitialized_copyISt13move_iteratorIPN2KE4RectEES3_ET0_T_S6_S5_ @1610
    _ZSt18uninitialized_copyISt13move_iteratorIPSsES1_ET0_T_S4_S3_ @1611
    _ZSt18uninitialized_copyISt13move_iteratorIPjES1_ET0_T_S4_S3_ @1612
    _ZSt19__iterator_categoryIN9__gnu_cxx17__normal_iteratorIPKSsSt6vectorISsSaISsEEEEENSt15iterator_traitsIT_E17iterator_categoryERKS9_ @1613
    _ZSt19__iterator_categoryIPKSsENSt15iterator_traitsIT_E17iterator_categoryERKS3_ @1614
    _ZSt20uninitialized_fill_nIPP13_SDL_JoystickjS1_EvT_T0_RKT1_ @1615
    _ZSt22__uninitialized_copy_aIN9__gnu_cxx17__normal_iteratorIPKjSt6vectorIjSaIjEEEEPjjET0_T_SA_S9_RSaIT1_E @1616
    _ZSt22__uninitialized_copy_aIPKSsPSsSsET0_T_S4_S3_RSaIT1_E @1617
    _ZSt22__uninitialized_copy_aIPjS0_jET0_T_S2_S1_RSaIT1_E @1618
    _ZSt22__uninitialized_copy_aISt13move_iteratorIPN2KE4RectEES3_S2_ET0_T_S6_S5_RSaIT1_E @1619
    _ZSt22__uninitialized_copy_aISt13move_iteratorIPSsES1_SsET0_T_S4_S3_RSaIT1_E @1620
    _ZSt22__uninitialized_copy_aISt13move_iteratorIPjES1_jET0_T_S4_S3_RSaIT1_E @1621
    _ZSt24__uninitialized_fill_n_aIPP13_SDL_JoystickjS1_S1_EvT_T0_RKT1_RSaIT2_E @1622
    _ZSt32__make_move_if_noexcept_iteratorIPN2KE4RectESt13move_iteratorIS2_EET0_T_ @1623
    _ZSt32__make_move_if_noexcept_iteratorIPSsSt13move_iteratorIS0_EET0_T_ @1624
    _ZSt32__make_move_if_noexcept_iteratorIPjSt13move_iteratorIS0_EET0_T_ @1625
    _ZSt34__uninitialized_move_if_noexcept_aIPN2KE4RectES2_SaIS1_EET0_T_S5_S4_RT1_ @1626
    _ZSt34__uninitialized_move_if_noexcept_aIPSsS0_SaISsEET0_T_S3_S2_RT1_ @1627
    _ZSt34__uninitialized_move_if_noexcept_aIPjS0_SaIjEET0_T_S3_S2_RT1_ @1628
    _ZSt3maxIhERKT_S2_S2_ @1629
    _ZSt3maxIiERKT_S2_S2_ @1630
    _ZSt3maxIjERKT_S2_S2_ @1631
    _ZSt3minIhERKT_S2_S2_ @1632
    _ZSt3minIiERKT_S2_S2_ @1633
    _ZSt4copyIN9__gnu_cxx17__normal_iteratorIPKjSt6vectorIjSaIjEEEENS1_IPjS6_EEET0_T_SB_SA_ @1634
    _ZSt4copyIN9__gnu_cxx17__normal_iteratorIPKjSt6vectorIjSaIjEEEEPjET0_T_SA_S9_ @1635
    _ZSt4copyIPKSsPSsET0_T_S4_S3_ @1636
    _ZSt4copyIPjS0_ET0_T_S2_S1_ @1637
    _ZSt4copyISt13move_iteratorIPjES1_ET0_T_S4_S3_ @1638
    _ZSt4findIN9__gnu_cxx17__normal_iteratorIPKSsSt6vectorISsSaISsEEEESsET_S8_S8_RKT0_ @1639
    _ZSt4moveIRN2KE4RectEEONSt16remove_referenceIT_E4typeEOS4_ @1640
    _ZSt4moveIRN2KE8InstanceINS0_6ObjectEEEEONSt16remove_referenceIT_E4typeEOS6_ @1641
    _ZSt4moveIRPjEONSt16remove_referenceIT_E4typeEOS3_ @1642
    _ZSt4moveIRSaIjEEONSt16remove_referenceIT_E4typeEOS3_ @1643
    _ZSt4moveIRSsEONSt16remove_referenceIT_E4typeEOS2_ @1644
    _ZSt4moveIRSt4listIN2KE8InstanceINS1_6ObjectEEESaIS4_EEEONSt16remove_referenceIT_E4typeEOS9_ @1645
    _ZSt4moveIRSt6vectorIjSaIjEEEONSt16remove_referenceIT_E4typeEOS5_ @1646
    _ZSt4moveIRjEONSt16remove_referenceIT_E4typeEOS2_ @1647
    _ZSt4sqrtIiEN9__gnu_cxx11__enable_ifIXsrSt12__is_integerIT_E7__valueEdE6__typeES3_ @1648
    _ZSt4swapIPjEvRT_S2_ @1649
    _ZSt5atan2IiiEN9__gnu_cxx11__promote_2IT_T0_NS0_9__promoteIS2_XsrSt12__is_integerIS2_E7__valueEE6__typeENS4_IS3_XsrS5_IS3_E7__valueEE6__typeEE6__typeES2_S3_ @1650
    _ZSt6__findIN9__gnu_cxx17__normal_iteratorIPKSsSt6vectorISsSaISsEEEESsET_S8_S8_RKT0_St26random_access_iterator_tag @1651
    _ZSt6fill_nIPP13_SDL_JoystickjS1_ET_S3_T0_RKT1_ @1652
    _ZSt7advanceIPKSsjEvRT_T0_ @1653
    _ZSt7forwardIKSsEOT_RNSt16remove_referenceIS1_E4typeE @1654
    _ZSt7forwardIN2KE4RectEEOT_RNSt16remove_referenceIS2_E4typeE @1655
    _ZSt7forwardIN2KE8InstanceINS0_6ObjectEEEEOT_RNSt16remove_referenceIS4_E4typeE @1656
    _ZSt7forwardIN2KE9AnimationEEOT_RNSt16remove_referenceIS2_E4typeE @1657
    _ZSt7forwardIPKcEOT_RNSt16remove_referenceIS2_E4typeE @1658
    _ZSt7forwardIPN2KE4FontEEOT_RNSt16remove_referenceIS3_E4typeE @1659
    _ZSt7forwardIPN2KE5MusicEEOT_RNSt16remove_referenceIS3_E4typeE @1660
    _ZSt7forwardIPN2KE5SoundEEOT_RNSt16remove_referenceIS3_E4typeE @1661
    _ZSt7forwardIPN2KE6CursorEEOT_RNSt16remove_referenceIS3_E4typeE @1662
    _ZSt7forwardIPN2KE7TextureEEOT_RNSt16remove_referenceIS3_E4typeE @1663
    _ZSt7forwardIPN2KE7TilesetEEOT_RNSt16remove_referenceIS3_E4typeE @1664
    _ZSt7forwardIRA5_KcEOT_RNSt16remove_referenceIS3_E4typeE @1665
    _ZSt7forwardIRKN2KE4RectEEOT_RNSt16remove_referenceIS4_E4typeE @1666
    _ZSt7forwardIRKSsEOT_RNSt16remove_referenceIS2_E4typeE @1667
    _ZSt7forwardIRSt17_Rb_tree_iteratorISt4pairIKSsN2KE9AnimationEEEEOT_RNSt16remove_referenceIS8_E4typeE @1668
    _ZSt7forwardIRSt17_Rb_tree_iteratorISt4pairIKSsPN2KE4FontEEEEOT_RNSt16remove_referenceIS9_E4typeE @1669
    _ZSt7forwardIRSt17_Rb_tree_iteratorISt4pairIKSsPN2KE5MusicEEEEOT_RNSt16remove_referenceIS9_E4typeE @1670
    _ZSt7forwardIRSt17_Rb_tree_iteratorISt4pairIKSsPN2KE5SoundEEEEOT_RNSt16remove_referenceIS9_E4typeE @1671
    _ZSt7forwardIRSt17_Rb_tree_iteratorISt4pairIKSsPN2KE6CursorEEEEOT_RNSt16remove_referenceIS9_E4typeE @1672
    _ZSt7forwardIRSt17_Rb_tree_iteratorISt4pairIKSsPN2KE7TextureEEEEOT_RNSt16remove_referenceIS9_E4typeE @1673
    _ZSt7forwardIRSt17_Rb_tree_iteratorISt4pairIKSsPN2KE7TilesetEEEEOT_RNSt16remove_referenceIS9_E4typeE @1674
    _ZSt7forwardISsEOT_RNSt16remove_referenceIS0_E4typeE @1675
    _ZSt7forwardISt17_Rb_tree_iteratorISt4pairIKSsN2KE9AnimationEEEEOT_RNSt16remove_referenceIS7_E4typeE @1676
    _ZSt7forwardISt17_Rb_tree_iteratorISt4pairIKSsPN2KE4FontEEEEOT_RNSt16remove_referenceIS8_E4typeE @1677
    _ZSt7forwardISt17_Rb_tree_iteratorISt4pairIKSsPN2KE5MusicEEEEOT_RNSt16remove_referenceIS8_E4typeE @1678
    _ZSt7forwardISt17_Rb_tree_iteratorISt4pairIKSsPN2KE5SoundEEEEOT_RNSt16remove_referenceIS8_E4typeE @1679
    _ZSt7forwardISt17_Rb_tree_iteratorISt4pairIKSsPN2KE6CursorEEEEOT_RNSt16remove_referenceIS8_E4typeE @1680
    _ZSt7forwardISt17_Rb_tree_iteratorISt4pairIKSsPN2KE7TextureEEEEOT_RNSt16remove_referenceIS8_E4typeE @1681
    _ZSt7forwardISt17_Rb_tree_iteratorISt4pairIKSsPN2KE7TilesetEEEEOT_RNSt16remove_referenceIS8_E4typeE @1682
    _ZSt7forwardISt4pairIKSsPN2KE4FontEEEOT_RNSt16remove_referenceIS6_E4typeE @1683
    _ZSt7forwardISt4pairIKSsPN2KE5MusicEEEOT_RNSt16remove_referenceIS6_E4typeE @1684
    _ZSt7forwardISt4pairIKSsPN2KE5SoundEEEOT_RNSt16remove_referenceIS6_E4typeE @1685
    _ZSt7forwardISt4pairIKSsPN2KE6CursorEEEOT_RNSt16remove_referenceIS6_E4typeE @1686
    _ZSt7forwardISt4pairIKSsPN2KE7TextureEEEOT_RNSt16remove_referenceIS6_E4typeE @1687
    _ZSt7forwardISt4pairIKSsPN2KE7TilesetEEEOT_RNSt16remove_referenceIS6_E4typeE @1688
    _ZSt7forwardISt4pairISsN2KE9AnimationEEEOT_RNSt16remove_referenceIS4_E4typeE @1689
    _ZSt7forwardIbEOT_RNSt16remove_referenceIS0_E4typeE @1690
    _ZSt7forwardIjEOT_RNSt16remove_referenceIS0_E4typeE @1691
    _ZSt8_DestroyIN9__gnu_cxx17__normal_iteratorIPjSt6vectorIjSaIjEEEEEvT_S7_ @1692
    _ZSt8_DestroyIN9__gnu_cxx17__normal_iteratorIPjSt6vectorIjSaIjEEEEjEvT_S7_RSaIT0_E @1693
    _ZSt8_DestroyIPN2KE4RectEEvT_S3_ @1694
    _ZSt8_DestroyIPN2KE4RectES1_EvT_S3_RSaIT0_E @1695
    _ZSt8_DestroyIPP13_SDL_JoystickEvT_S3_ @1696
    _ZSt8_DestroyIPP13_SDL_JoystickS1_EvT_S3_RSaIT0_E @1697
    _ZSt8_DestroyIPSsEvT_S1_ @1698
    _ZSt8_DestroyIPSsSsEvT_S1_RSaIT0_E @1699
    _ZSt8_DestroyIPjEvT_S1_ @1700
    _ZSt8_DestroyIPjjEvT_S1_RSaIT0_E @1701
    _ZSt8_DestroyISsEvPT_ @1702
    _ZSt8distanceIPKSsENSt15iterator_traitsIT_E15difference_typeES3_S3_ @1703
    _ZSt9__advanceIPKSsiEvRT_T0_St26random_access_iterator_tag @1704
    _ZSteqIPN2KE4RectEEbRKSt13move_iteratorIT_ES7_ @1705
    _ZSteqIPSsEbRKSt13move_iteratorIT_ES5_ @1706
    _ZSteqIcEN9__gnu_cxx11__enable_ifIXsrSt9__is_charIT_E7__valueEbE6__typeERKSbIS3_St11char_traitsIS3_ESaIS3_EESC_ @1707
    _ZSteqIcSt11char_traitsIcESaIcEEbRKSbIT_T0_T1_EPKS3_ @1708
    _ZStltIcSt11char_traitsIcESaIcEEbRKSbIT_T0_T1_ES8_ @1709
    _ZStneIPN2KE4RectEEbRKSt13move_iteratorIT_ES7_ @1710
    _ZStneIPSsEbRKSt13move_iteratorIT_ES5_ @1711
    _ZStneIjEbRKSaIT_ES3_ @1712
    _ZStplIcSt11char_traitsIcESaIcEESbIT_T0_T1_ERKS6_PKS3_ @1713
    _ZTIN2KE3LogE @1714 DATA
    _ZTIN2KE4GameE @1715 DATA
    _ZTIN2KE5ErrorE @1716 DATA
    _ZTIN2KE5SceneE @1717 DATA
    _ZTIN2KE6ObjectE @1718 DATA
    _ZTIN2KE7ConsoleE @1719 DATA
    _ZTIN2KE7HUDTextE @1720 DATA
    _ZTIN2KE7WarningE @1721 DATA
    _ZTIN2KE9HUDObjectE @1722 DATA
    _ZTIN8tinyxml210XMLCommentE @1723 DATA
    _ZTIN8tinyxml210XMLElementE @1724 DATA
    _ZTIN8tinyxml210XMLPrinterE @1725 DATA
    _ZTIN8tinyxml210XMLUnknownE @1726 DATA
    _ZTIN8tinyxml210XMLVisitorE @1727 DATA
    _ZTIN8tinyxml211XMLDocumentE @1728 DATA
    _ZTIN8tinyxml212XMLAttributeE @1729 DATA
    _ZTIN8tinyxml214XMLDeclarationE @1730 DATA
    _ZTIN8tinyxml27MemPoolE @1731 DATA
    _ZTIN8tinyxml27XMLNodeE @1732 DATA
    _ZTIN8tinyxml27XMLTextE @1733 DATA
    _ZTIN8tinyxml28MemPoolTILi36EEE @1734 DATA
    _ZTIN8tinyxml28MemPoolTILi44EEE @1735 DATA
    _ZTIN8tinyxml28MemPoolTILi48EEE @1736 DATA
    _ZTIN8tinyxml28MemPoolTILi52EEE @1737 DATA
    _ZTSN2KE3LogE @1738 DATA
    _ZTSN2KE4GameE @1739 DATA
    _ZTSN2KE5ErrorE @1740 DATA
    _ZTSN2KE5SceneE @1741 DATA
    _ZTSN2KE6ObjectE @1742 DATA
    _ZTSN2KE7ConsoleE @1743 DATA
    _ZTSN2KE7HUDTextE @1744 DATA
    _ZTSN2KE7WarningE @1745 DATA
    _ZTSN2KE9HUDObjectE @1746 DATA
    _ZTSN8tinyxml210XMLCommentE @1747 DATA
    _ZTSN8tinyxml210XMLElementE @1748 DATA
    _ZTSN8tinyxml210XMLPrinterE @1749 DATA
    _ZTSN8tinyxml210XMLUnknownE @1750 DATA
    _ZTSN8tinyxml210XMLVisitorE @1751 DATA
    _ZTSN8tinyxml211XMLDocumentE @1752 DATA
    _ZTSN8tinyxml212XMLAttributeE @1753 DATA
    _ZTSN8tinyxml214XMLDeclarationE @1754 DATA
    _ZTSN8tinyxml27MemPoolE @1755 DATA
    _ZTSN8tinyxml27XMLNodeE @1756 DATA
    _ZTSN8tinyxml27XMLTextE @1757 DATA
    _ZTSN8tinyxml28MemPoolTILi36EEE @1758 DATA
    _ZTSN8tinyxml28MemPoolTILi44EEE @1759 DATA
    _ZTSN8tinyxml28MemPoolTILi48EEE @1760 DATA
    _ZTSN8tinyxml28MemPoolTILi52EEE @1761 DATA
    _ZTVN2KE3LogE @1762 DATA
    _ZTVN2KE4GameE @1763 DATA
    _ZTVN2KE5ErrorE @1764 DATA
    _ZTVN2KE5SceneE @1765 DATA
    _ZTVN2KE6ObjectE @1766 DATA
    _ZTVN2KE7ConsoleE @1767 DATA
    _ZTVN2KE7HUDTextE @1768 DATA
    _ZTVN2KE7WarningE @1769 DATA
    _ZTVN2KE9HUDObjectE @1770 DATA
    _ZTVN8tinyxml210XMLCommentE @1771 DATA
    _ZTVN8tinyxml210XMLElementE @1772 DATA
    _ZTVN8tinyxml210XMLPrinterE @1773 DATA
    _ZTVN8tinyxml210XMLUnknownE @1774 DATA
    _ZTVN8tinyxml210XMLVisitorE @1775 DATA
    _ZTVN8tinyxml211XMLDocumentE @1776 DATA
    _ZTVN8tinyxml212XMLAttributeE @1777 DATA
    _ZTVN8tinyxml214XMLDeclarationE @1778 DATA
    _ZTVN8tinyxml27MemPoolE @1779 DATA
    _ZTVN8tinyxml27XMLNodeE @1780 DATA
    _ZTVN8tinyxml27XMLTextE @1781 DATA
    _ZTVN8tinyxml28MemPoolTILi36EEE @1782 DATA
    _ZTVN8tinyxml28MemPoolTILi44EEE @1783 DATA
    _ZTVN8tinyxml28MemPoolTILi48EEE @1784 DATA
    _ZTVN8tinyxml28MemPoolTILi52EEE @1785 DATA
    _ZdlPvS_ @1786
    _ZnwjPv @1787
    _get_output_format @1788
    ferror @1789
    printf @1790
    vfprintf @1791
